
FourRotorAircraft.elf:     file format elf32-littlenios2
FourRotorAircraft.elf
architecture: nios2, flags 0x00000112:
EXEC_P, HAS_SYMS, D_PAGED
start address 0x020001b4

Program Header:
    LOAD off    0x00001020 vaddr 0x02000020 paddr 0x02000020 align 2**12
         filesz 0x0001594c memsz 0x00015cb4 flags rwx
    LOAD off    0x00017800 vaddr 0x04081800 paddr 0x04081800 align 2**12
         filesz 0x00000000 memsz 0x00000000 flags r-x

Sections:
Idx Name          Size      VMA       LMA       File off  Algn
  0 .entry        00000000  04081800  04081800  00017800  2**5
                  CONTENTS, ALLOC, LOAD, READONLY, CODE
  1 .exceptions   00000194  02000020  02000020  00001020  2**2
                  CONTENTS, ALLOC, LOAD, READONLY, CODE
  2 .text         000135e8  020001b4  020001b4  000011b4  2**2
                  CONTENTS, ALLOC, LOAD, READONLY, CODE
  3 .rodata       00000440  0201379c  0201379c  0001479c  2**2
                  CONTENTS, ALLOC, LOAD, READONLY, DATA
  4 .rwdata       00001d90  02013bdc  02013bdc  00014bdc  2**2
                  CONTENTS, ALLOC, LOAD, DATA, SMALL_DATA
  5 .bss          00000368  0201596c  0201596c  0001696c  2**2
                  ALLOC, SMALL_DATA
  6 .comment      00000023  00000000  00000000  00017800  2**0
                  CONTENTS, READONLY
  7 .debug_aranges 000011b0  00000000  00000000  00017828  2**3
                  CONTENTS, READONLY, DEBUGGING
  8 .debug_pubnames 000020be  00000000  00000000  000189d8  2**0
                  CONTENTS, READONLY, DEBUGGING
  9 .debug_info   0002dc39  00000000  00000000  0001aa96  2**0
                  CONTENTS, READONLY, DEBUGGING
 10 .debug_abbrev 0000aa27  00000000  00000000  000486cf  2**0
                  CONTENTS, READONLY, DEBUGGING
 11 .debug_line   0001a80d  00000000  00000000  000530f6  2**0
                  CONTENTS, READONLY, DEBUGGING
 12 .debug_frame  00002764  00000000  00000000  0006d904  2**2
                  CONTENTS, READONLY, DEBUGGING
 13 .debug_str    00002954  00000000  00000000  00070068  2**0
                  CONTENTS, READONLY, DEBUGGING
 14 .debug_loc    0000dcc0  00000000  00000000  000729bc  2**0
                  CONTENTS, READONLY, DEBUGGING
 15 .debug_alt_sim_info 00000050  00000000  00000000  0008067c  2**2
                  CONTENTS, READONLY, DEBUGGING
 16 .debug_ranges 00000af8  00000000  00000000  000806d0  2**3
                  CONTENTS, READONLY, DEBUGGING
 17 .thread_model 00000003  00000000  00000000  000856cd  2**0
                  CONTENTS, READONLY
 18 .cpu          00000005  00000000  00000000  000856d0  2**0
                  CONTENTS, READONLY
 19 .simulation_enabled 00000001  00000000  00000000  000856d5  2**0
                  CONTENTS, READONLY
 20 .sysid_hash   00000004  00000000  00000000  000856d6  2**0
                  CONTENTS, READONLY
 21 .sysid_base   00000004  00000000  00000000  000856da  2**0
                  CONTENTS, READONLY
 22 .sysid_time   00000004  00000000  00000000  000856de  2**0
                  CONTENTS, READONLY
 23 .stderr_dev   0000000b  00000000  00000000  000856e2  2**0
                  CONTENTS, READONLY
 24 .stdin_dev    0000000b  00000000  00000000  000856ed  2**0
                  CONTENTS, READONLY
 25 .stdout_dev   0000000b  00000000  00000000  000856f8  2**0
                  CONTENTS, READONLY
 26 .sopc_system_name 00000005  00000000  00000000  00085703  2**0
                  CONTENTS, READONLY
 27 .quartus_project_dir 0000001e  00000000  00000000  00085708  2**0
                  CONTENTS, READONLY
 28 .jdi          0000418a  00000000  00000000  00085726  2**0
                  CONTENTS, READONLY
SYMBOL TABLE:
04081800 l    d  .entry	00000000 .entry
02000020 l    d  .exceptions	00000000 .exceptions
020001b4 l    d  .text	00000000 .text
0201379c l    d  .rodata	00000000 .rodata
02013bdc l    d  .rwdata	00000000 .rwdata
0201596c l    d  .bss	00000000 .bss
00000000 l    d  .comment	00000000 .comment
00000000 l    d  .debug_aranges	00000000 .debug_aranges
00000000 l    d  .debug_pubnames	00000000 .debug_pubnames
00000000 l    d  .debug_info	00000000 .debug_info
00000000 l    d  .debug_abbrev	00000000 .debug_abbrev
00000000 l    d  .debug_line	00000000 .debug_line
00000000 l    d  .debug_frame	00000000 .debug_frame
00000000 l    d  .debug_str	00000000 .debug_str
00000000 l    d  .debug_loc	00000000 .debug_loc
00000000 l    d  .debug_alt_sim_info	00000000 .debug_alt_sim_info
00000000 l    d  .debug_ranges	00000000 .debug_ranges
020001f8 l       .text	00000000 alt_after_alt_main
00000000 l    df *ABS*	00000000 alt_irq_handler.c
00000000 l    df *ABS*	00000000 app.c
0201596c l     O .bss	00000004 heightOut.2831
00000000 l    df *ABS*	00000000 controller.c
02015970 l     O .bss	00000004 s_integral.2623
02015974 l     O .bss	00000004 s_lastErr.2622
02015978 l     O .bss	00000004 s_integral.2657
0201597c l     O .bss	00000004 s_lastErr.2656
02015980 l     O .bss	00000004 s_integral.2691
02015984 l     O .bss	00000004 s_lastErr.2690
02015988 l     O .bss	00000004 s_integral.2720
0201598c l     O .bss	00000004 s_lastErr.2719
00000000 l    df *ABS*	00000000 fbm320.c
00000000 l    df *ABS*	00000000 i2c_opencores.c
00000000 l    df *ABS*	00000000 jy901.c
00000000 l    df *ABS*	00000000 main.c
00000000 l    df *ABS*	00000000 pwm.c
00000000 l    df *ABS*	00000000 timer.c
00000000 l    df *ABS*	00000000 us100.c
00000000 l    df *ABS*	00000000 w_sqrt.c
00000000 l    df *ABS*	00000000 e_sqrt.c
00000000 l    df *ABS*	00000000 s_isnand.c
00000000 l    df *ABS*	00000000 s_lib_ver.c
00000000 l    df *ABS*	00000000 s_matherr.c
00000000 l    df *ABS*	00000000 libgcc2.c
00000000 l    df *ABS*	00000000 libgcc2.c
00000000 l    df *ABS*	00000000 libgcc2.c
00000000 l    df *ABS*	00000000 fp-bit.c
02002b98 l     F .text	000001e4 _fpadd_parts
00000000 l    df *ABS*	00000000 fp-bit.c
00000000 l    df *ABS*	00000000 fp-bit.c
00000000 l    df *ABS*	00000000 fp-bit.c
00000000 l    df *ABS*	00000000 fp-bit.c
00000000 l    df *ABS*	00000000 fp-bit.c
00000000 l    df *ABS*	00000000 fp-bit.c
00000000 l    df *ABS*	00000000 fp-bit.c
00000000 l    df *ABS*	00000000 fp-bit.c
00000000 l    df *ABS*	00000000 fp-bit.c
00000000 l    df *ABS*	00000000 dp-bit.c
020034d4 l     F .text	00000410 _fpadd_parts
00000000 l    df *ABS*	00000000 dp-bit.c
00000000 l    df *ABS*	00000000 dp-bit.c
00000000 l    df *ABS*	00000000 dp-bit.c
00000000 l    df *ABS*	00000000 dp-bit.c
00000000 l    df *ABS*	00000000 dp-bit.c
00000000 l    df *ABS*	00000000 dp-bit.c
00000000 l    df *ABS*	00000000 dp-bit.c
00000000 l    df *ABS*	00000000 dp-bit.c
00000000 l    df *ABS*	00000000 lib2-divmod.c
02004394 l     F .text	0000007c udivmodsi4
00000000 l    df *ABS*	00000000 libgcc2.c
00000000 l    df *ABS*	00000000 libgcc2.c
00000000 l    df *ABS*	00000000 libgcc2.c
00000000 l    df *ABS*	00000000 libgcc2.c
00000000 l    df *ABS*	00000000 fp-bit.c
00000000 l    df *ABS*	00000000 fp-bit.c
00000000 l    df *ABS*	00000000 fp-bit.c
00000000 l    df *ABS*	00000000 fp-bit.c
00000000 l    df *ABS*	00000000 dp-bit.c
00000000 l    df *ABS*	00000000 dp-bit.c
00000000 l    df *ABS*	00000000 dp-bit.c
00000000 l    df *ABS*	00000000 dp-bit.c
00000000 l    df *ABS*	00000000 errno.c
00000000 l    df *ABS*	00000000 impure.c
02013bdc l     O .rwdata	00000400 impure_data
00000000 l    df *ABS*	00000000 printf.c
00000000 l    df *ABS*	00000000 puts.c
00000000 l    df *ABS*	00000000 strlen.c
00000000 l    df *ABS*	00000000 vfprintf.c
020050e4 l     F .text	00000058 __sprint_r
020139ce l     O .rodata	00000010 blanks.3452
020139be l     O .rodata	00000010 zeroes.3453
00000000 l    df *ABS*	00000000 wsetup.c
00000000 l    df *ABS*	00000000 dtoa.c
02007148 l     F .text	00000218 quorem
00000000 l    df *ABS*	00000000 fflush.c
00000000 l    df *ABS*	00000000 findfp.c
02008b44 l     F .text	00000058 std
02008c50 l     F .text	00000008 __fp_lock
02008c58 l     F .text	00000008 __fp_unlock
00000000 l    df *ABS*	00000000 mallocr.c
00000000 l    df *ABS*	00000000 fvwrite.c
00000000 l    df *ABS*	00000000 fwalk.c
00000000 l    df *ABS*	00000000 locale.c
02015930 l     O .rwdata	00000004 charset
02013a00 l     O .rodata	00000030 lconv
00000000 l    df *ABS*	00000000 makebuf.c
00000000 l    df *ABS*	00000000 mallocr.c
00000000 l    df *ABS*	00000000 memchr.c
00000000 l    df *ABS*	00000000 memcpy.c
00000000 l    df *ABS*	00000000 memmove.c
00000000 l    df *ABS*	00000000 memset.c
00000000 l    df *ABS*	00000000 mprec.c
02013b48 l     O .rodata	0000000c p05.2458
00000000 l    df *ABS*	00000000 mallocr.c
00000000 l    df *ABS*	00000000 s_isinfd.c
00000000 l    df *ABS*	00000000 sbrkr.c
00000000 l    df *ABS*	00000000 stdio.c
00000000 l    df *ABS*	00000000 strcmp.c
00000000 l    df *ABS*	00000000 writer.c
00000000 l    df *ABS*	00000000 mallocr.c
00000000 l    df *ABS*	00000000 closer.c
00000000 l    df *ABS*	00000000 fclose.c
00000000 l    df *ABS*	00000000 fstatr.c
00000000 l    df *ABS*	00000000 int_errno.c
00000000 l    df *ABS*	00000000 isattyr.c
00000000 l    df *ABS*	00000000 lseekr.c
00000000 l    df *ABS*	00000000 readr.c
00000000 l    df *ABS*	00000000 libgcc2.c
00000000 l    df *ABS*	00000000 dp-bit.c
00000000 l    df *ABS*	00000000 dp-bit.c
00000000 l    df *ABS*	00000000 dp-bit.c
00000000 l    df *ABS*	00000000 dp-bit.c
00000000 l    df *ABS*	00000000 alt_close.c
0200cb64 l     F .text	00000060 alt_get_errno
00000000 l    df *ABS*	00000000 alt_dev.c
0200cbc4 l     F .text	0000002c alt_dev_null_write
00000000 l    df *ABS*	00000000 alt_errno.c
00000000 l    df *ABS*	00000000 alt_fstat.c
0200ccc4 l     F .text	00000060 alt_get_errno
00000000 l    df *ABS*	00000000 alt_iic.c
00000000 l    df *ABS*	00000000 alt_iic_isr_register.c
00000000 l    df *ABS*	00000000 alt_irq_register.c
00000000 l    df *ABS*	00000000 alt_irq_vars.c
00000000 l    df *ABS*	00000000 alt_isatty.c
0200d270 l     F .text	00000060 alt_get_errno
00000000 l    df *ABS*	00000000 alt_lseek.c
0200d3c0 l     F .text	00000060 alt_get_errno
00000000 l    df *ABS*	00000000 alt_main.c
00000000 l    df *ABS*	00000000 alt_malloc_lock.c
00000000 l    df *ABS*	00000000 alt_read.c
0200d5ec l     F .text	00000060 alt_get_errno
00000000 l    df *ABS*	00000000 alt_release_fd.c
00000000 l    df *ABS*	00000000 alt_sbrk.c
02015958 l     O .rwdata	00000004 heap_end
00000000 l    df *ABS*	00000000 alt_usleep.c
00000000 l    df *ABS*	00000000 alt_write.c
0200d8b8 l     F .text	00000060 alt_get_errno
00000000 l    df *ABS*	00000000 alt_sys_init.c
02014598 l     O .rwdata	000000d8 cfi_flash_0
02014670 l     O .rwdata	000000c4 epcs_flash_controller_0
02014734 l     O .rwdata	00001060 jtag_uart_0
02015794 l     O .rwdata	000000c4 HC_12
02015858 l     O .rwdata	000000c4 US_100_UART
0200da00 l     F .text	00000038 alt_dev_reg
00000000 l    df *ABS*	00000000 altera_avalon_cfi_flash.c
0200dad4 l     F .text	00000038 alt_flash_device_register
00000000 l    df *ABS*	00000000 altera_avalon_cfi_flash_table.c
0200e8c4 l     F .text	0000007c alt_read_16bit_query_entry
00000000 l    df *ABS*	00000000 altera_avalon_epcs_flash_controller.c
0200f7d4 l     F .text	000001ec alt_epcs_flash_query
0200f79c l     F .text	00000038 alt_flash_device_register
0200f9c0 l     F .text	00000108 alt_epcs_flash_memcmp
0200fe4c l     F .text	00000094 alt_epcs_test_address
00000000 l    df *ABS*	00000000 altera_avalon_jtag_uart_fd.c
00000000 l    df *ABS*	00000000 altera_avalon_jtag_uart_init.c
02010284 l     F .text	00000228 altera_avalon_jtag_uart_irq
020104ac l     F .text	000000b0 altera_avalon_jtag_uart_timeout
00000000 l    df *ABS*	00000000 altera_avalon_jtag_uart_ioctl.c
00000000 l    df *ABS*	00000000 altera_avalon_jtag_uart_read.c
00000000 l    df *ABS*	00000000 altera_avalon_jtag_uart_write.c
00000000 l    df *ABS*	00000000 altera_avalon_timer_sc.c
02010b28 l     F .text	00000070 alt_avalon_timer_sc_irq
00000000 l    df *ABS*	00000000 altera_avalon_uart_fd.c
00000000 l    df *ABS*	00000000 altera_avalon_uart_init.c
02010de8 l     F .text	0000009c altera_avalon_uart_irq
02010e84 l     F .text	000000e0 altera_avalon_uart_rxirq
02010f64 l     F .text	0000015c altera_avalon_uart_txirq
00000000 l    df *ABS*	00000000 altera_avalon_uart_read.c
02011350 l     F .text	00000060 alt_get_errno
00000000 l    df *ABS*	00000000 altera_avalon_uart_write.c
02011578 l     F .text	00000060 alt_get_errno
00000000 l    df *ABS*	00000000 epcs_commands.c
020116b4 l     F .text	00000038 epcs_await_wip_released
020116ec l     F .text	00000038 epcs_test_wip
00000000 l    df *ABS*	00000000 alt_alarm_start.c
00000000 l    df *ABS*	00000000 alt_busy_sleep.c
00000000 l    df *ABS*	00000000 alt_dcache_flush.c
00000000 l    df *ABS*	00000000 alt_dev_llist_insert.c
02011e04 l     F .text	00000060 alt_get_errno
00000000 l    df *ABS*	00000000 alt_do_ctors.c
00000000 l    df *ABS*	00000000 alt_do_dtors.c
00000000 l    df *ABS*	00000000 alt_flash_dev.c
00000000 l    df *ABS*	00000000 alt_io_redirect.c
02011ffc l     F .text	000000c4 alt_open_fd
00000000 l    df *ABS*	00000000 alt_open.c
02012138 l     F .text	000000dc alt_file_locked
0201239c l     F .text	00000060 alt_get_errno
00000000 l    df *ABS*	00000000 alt_tick.c
00000000 l    df *ABS*	00000000 altera_nios2_irq.c
00000000 l    df *ABS*	00000000 altera_avalon_cfi_flash_amd.c
02012964 l     F .text	000000bc alt_write_word_amd
02012840 l     F .text	00000124 alt_wait_for_command_to_complete_amd
00000000 l    df *ABS*	00000000 altera_avalon_cfi_flash_intel.c
02012c18 l     F .text	0000018c alt_unlock_block_intel
02012da4 l     F .text	000000dc alt_write_word_intel
00000000 l    df *ABS*	00000000 altera_avalon_spi.c
00000000 l    df *ABS*	00000000 alt_find_dev.c
00000000 l    df *ABS*	00000000 alt_find_file.c
00000000 l    df *ABS*	00000000 alt_get_fd.c
00000000 l    df *ABS*	00000000 atexit.c
00000000 l    df *ABS*	00000000 exit.c
00000000 l    df *ABS*	00000000 memcmp.c
00000000 l    df *ABS*	00000000 __atexit.c
00000000 l    df *ABS*	00000000 __call_atexit.c
02013518 l     F .text	00000004 register_fini
00000000 l    df *ABS*	00000000 alt_exit.c
020136cc l     F .text	00000040 alt_sim_halt
0200a900 g     F .text	00000094 _mprec_log10
0200fd48 g     F .text	00000090 alt_epcs_flash_get_info
0200a9ec g     F .text	00000088 __any_on
0200c0c8 g     F .text	00000070 _isatty_r
02013b20 g     O .rodata	00000028 __mprec_tinytens
0200d420 g     F .text	0000006c alt_main
02004fbc g     F .text	000000a0 _puts_r
0200e384 g     F .text	00000048 alt_read_query_entry_32bit
02015a44 g     O .bss	00000100 alt_irq
0200c138 g     F .text	00000078 _lseek_r
0200db0c g     F .text	000002c0 alt_flash_cfi_write
02002048 g     F .text	00000130 sqrt
0200c7d8 g     F .text	00000088 __eqdf2
02001c50 g     F .text	00000068 isr_timer0
02015cd4 g       *ABS*	00000000 __alt_heap_start
02000c4c g     F .text	000000c8 PIDInit
02004f44 g     F .text	00000044 printf
0200bb94 g     F .text	00000068 __sseek
02008bac g     F .text	000000a4 __sinit
02015994 g     O .bss	00000001 timeFlag
02009884 g     F .text	00000084 _setlocale_r
02008cac g     F .text	00000068 __sfmoreglue
02000238 g     F .text	00000a14 MotorControl
0200d4ac g     F .text	00000020 __malloc_unlock
02003030 g     F .text	00000174 __divsf3
0200a37c g     F .text	000000e0 memmove
02008c9c g     F .text	00000010 _cleanup
0200aa74 g     F .text	000000bc _Balloc
0200332c g     F .text	00000094 __fixsfsi
020159a0 g     O .bss	00000008 uartData
0200c8e8 g     F .text	00000088 __gtdf2
02004f34 g     F .text	00000010 __errno
02011638 g     F .text	0000007c epcs_sector_erase
0200e510 g     F .text	00000048 alt_write_flash_command_32bit_device_16bit_mode
04081800 g     F .entry	00000000 __reset
0201599c g     O .bss	00000004 g_preLength
0200c054 g     F .text	00000074 _fstat_r
0200e028 g     F .text	000002d8 alt_flash_program_block
020159c4 g     O .bss	00000004 errno
02004154 g     F .text	00000038 __make_dp
0200496c g     F .text	0000002c __make_fp
020159d0 g     O .bss	00000004 alt_argv
0201d91c g       *ABS*	00000000 _gp
0200d768 g     F .text	00000030 usleep
02002d7c g     F .text	00000070 __subsf3
02014418 g     O .rwdata	00000180 alt_fd_list
02011828 g     F .text	00000064 epcs_write_status_register
020130b8 g     F .text	00000094 alt_find_dev
0200a2dc g     F .text	000000a0 memcpy
02008c90 g     F .text	0000000c _cleanup_r
0200c970 g     F .text	000000f8 __floatsidf
020120c0 g     F .text	00000078 alt_io_redirect
02003ff4 g     F .text	00000088 __ltdf2
0201379c g       *ABS*	00000000 __DTOR_END__
0200505c g     F .text	00000014 puts
020014cc g     F .text	000000ac I2C_start
020125a0 g     F .text	00000020 altera_nios2_irq_init
0200fee0 g     F .text	00000110 alt_epcs_flash_write_block
0200a850 g     F .text	000000b0 __ratio
020106c4 g     F .text	00000224 altera_avalon_jtag_uart_read
00000000  w      *UND*	00000000 malloc
02004f88 g     F .text	00000034 _printf_r
020044d0 g     F .text	00000008 __udivsi3
0200d1b0 g     F .text	000000c0 isatty
02013a30 g     O .rodata	000000c8 __mprec_tens
02009860 g     F .text	00000008 __locale_charset
02015993 g     O .bss	00000001 g_flag20ms
020045f8 g     F .text	000000a4 __fixunsdfsi
020159b8 g     O .bss	00000004 __malloc_top_pad
0201592c g     O .rwdata	00000004 __mb_cur_max
02009868 g     F .text	0000000c _localeconv_r
0200b16c g     F .text	0000003c __i2b
02009244 g     F .text	0000049c __sfvwrite_r
0200bb1c g     F .text	00000070 _sbrk_r
02012a20 g     F .text	00000084 alt_program_intel
02000d14 g     F .text	000001c8 RollCalc
0200c1b0 g     F .text	00000078 _read_r
02011cd8 g     F .text	00000078 alt_dcache_flush
02013fdc g     O .rwdata	0000000c __lc_ctype
0201594c g     O .rwdata	00000004 alt_max_fd
0200e300 g     F .text	00000040 alt_read_query_entry_8bit
02004cac g     F .text	00000138 __unpack_d
0200bf30 g     F .text	00000110 _fclose_r
02012aa4 g     F .text	00000174 alt_erase_block_intel
02008b10 g     F .text	00000034 fflush
020159bc g     O .bss	00000004 __malloc_max_sbrked_mem
0200cff0 g     F .text	000001c0 alt_irq_register
020033c0 g     F .text	00000054 __extendsfdf2
02003964 g     F .text	00000074 __adddf3
0200fdd8 g     F .text	00000074 alt_epcs_flash_erase_block
0200a730 g     F .text	00000120 __b2d
0200c228 g     F .text	000005b0 __umoddi3
0200d2d0 g     F .text	000000f0 lseek
02015920 g     O .rwdata	00000004 __fdlib_version
02015928 g     O .rwdata	00000004 _global_impure_ptr
0200b4e8 g     F .text	000005f4 _realloc_r
02015cd4 g       *ABS*	00000000 __bss_end
0200cef8 g     F .text	000000f8 alt_iic_isr_register
02012494 g     F .text	0000010c alt_tick
020025bc g     F .text	000005dc __udivdi3
02001e7c g     F .text	00000064 Uart_232_send_n
02013af8 g     O .rodata	00000028 __mprec_bigtens
0200b3c8 g     F .text	00000120 __s2b
02004200 g     F .text	00000194 __floatunsidf
0200a650 g     F .text	00000060 __mcmp
02010d20 g     F .text	000000c8 altera_avalon_uart_init
02008c78 g     F .text	00000018 __fp_lock_all
0200ceb0 g     F .text	00000048 alt_ic_irq_enabled
02001938 g     F .text	0000024c moto_setting
020123fc g     F .text	00000098 alt_alarm_stop
020159c8 g     O .bss	00000004 alt_irq_active
020000ec g     F .exceptions	000000c8 alt_irq_handler
020143f0 g     O .rwdata	00000028 alt_dev_null
02001ee0 g     F .text	00000064 Uart_232_receive
020047fc g     F .text	000000c8 __unpack_f
0200e818 g     F .text	000000ac alt_set_flash_algorithm_func
0200a51c g     F .text	00000070 __hi0bits
0200407c g     F .text	000000d8 __fixdfsi
0200e3cc g     F .text	0000003c alt_write_flash_command_8bit_device_8bit_mode
02015a08 g     O .bss	0000000c standardAngle
02015944 g     O .rwdata	00000008 alt_dev_list
0200d798 g     F .text	00000120 write
02001d5c g     F .text	000000b4 Uart_232_set_baudrate
020031a4 g     F .text	00000078 __gtsf2
0200cbf0 g     F .text	000000d4 fstat
0200f66c g     F .text	000000dc alt_check_primary_table
0200b2a8 g     F .text	00000120 __pow5mult
020159ac g     O .bss	00000004 __nlocale_changed
020044d8 g     F .text	00000008 __umodsi3
0200de5c g     F .text	00000068 alt_flash_cfi_read
0200e5a0 g     F .text	00000034 alt_write_native_8bit
02011964 g     F .text	0000006c epcs_read_electronic_signature
02015cd4 g       *ABS*	00000000 end
0200131c g     F .text	000000c0 Read_FBM320
0200469c g     F .text	00000160 __pack_f
0200e408 g     F .text	0000007c alt_write_flash_command_16bit_device_8bit_mode
020113b0 g     F .text	000001c8 altera_avalon_uart_write
0200e940 g     F .text	00000580 alt_read_cfi_table
020101c4 g     F .text	000000c0 altera_avalon_jtag_uart_init
02013798 g       *ABS*	00000000 __CTOR_LIST__
04000000 g       *ABS*	00000000 __alt_stack_pointer
02010b98 g     F .text	00000090 alt_avalon_timer_sc_init
02010c80 g     F .text	00000058 altera_avalon_uart_write_fd
02004578 g     F .text	00000080 __clzsi2
02010cd8 g     F .text	00000048 altera_avalon_uart_close_fd
020108e8 g     F .text	00000240 altera_avalon_jtag_uart_write
0200da38 g     F .text	0000009c alt_flash_cfi_init
02008b9c g     F .text	00000004 __sfp_lock_acquire
0200a1f8 g     F .text	000000e4 memchr
0200513c g     F .text	00001eac ___vfprintf_internal_r
04040000 g       *ABS*	00000000 __alt_mem_cfi_flash_0
02008f30 g     F .text	00000314 _free_r
0201591d g     O .rwdata	00000001 g_protectFlag
0201351c g     F .text	000001b0 __call_exitprocs
020159b0 g     O .bss	00000004 __mlocale_changed
02015938 g     O .rwdata	00000004 __malloc_sbrk_base
020001b4 g     F .text	00000048 _start
020159d8 g     O .bss	00000004 _alt_tick_rate
02002534 g     F .text	00000088 __floatundidf
0200ae38 g     F .text	0000014c __lshift
02012e80 g     F .text	00000238 alt_avalon_spi_command
020159dc g     O .bss	00000004 _alt_nticks
0200d4cc g     F .text	00000120 read
0200d94c g     F .text	000000b4 alt_sys_init
02003294 g     F .text	00000098 __floatsisf
020133e4 g     F .text	00000134 __register_exitproc
0200e340 g     F .text	00000044 alt_read_query_entry_16bit
0200af84 g     F .text	000001e8 __multiply
02001fe0 g     F .text	00000068 Uart_232_initial
0201055c g     F .text	00000074 altera_avalon_jtag_uart_close
020001fc g     F .text	0000003c bspInit
020159e0 g     O .bss	00000028 __malloc_current_mallinfo
0200e638 g     F .text	000001e0 alt_set_flash_width_func
0200ab30 g     F .text	0000017c __d2b
020115d8 g     F .text	00000060 epcs_read_status_register
0201007c g     F .text	00000058 altera_avalon_jtag_uart_read_fd
0201326c g     F .text	000000b8 alt_get_fd
02011b8c g     F .text	0000014c alt_busy_sleep
02004de4 g     F .text	000000c8 __fpcmp_parts_d
0200bec0 g     F .text	00000070 _close_r
02012628 g     F .text	00000218 alt_erase_block_amd
020119d0 g     F .text	00000068 epcs_read_device_id
02013370 g     F .text	00000074 memcmp
0201012c g     F .text	00000048 altera_avalon_jtag_uart_close_fd
02001f44 g     F .text	0000009c Uart_232_ISR
02015cd4 g       *ABS*	00000000 __alt_stack_base
02010174 g     F .text	00000050 altera_avalon_jtag_uart_ioctl_fd
04081800 g       *ABS*	00000000 __alt_mem_epcs_flash_controller_0
02001200 g     F .text	0000011c HeightCalc
0200700c g     F .text	0000013c __swsetup_r
0200eec0 g     F .text	000007ac alt_read_cfi_width
02003d9c g     F .text	00000258 __divdf3
02008d14 g     F .text	000000f0 __sfp
0200a994 g     F .text	00000058 __copybits
02013fe8 g     O .rwdata	00000408 __malloc_av_
02008ba8 g     F .text	00000004 __sinit_lock_release
020039d8 g     F .text	000003c4 __muldf3
0200bc78 g     F .text	00000060 __sread
02013834 g     O .rodata	00000010 __thenan_sf
0201314c g     F .text	00000120 alt_find_file
02011d50 g     F .text	000000b4 alt_dev_llist_insert
0200d48c g     F .text	00000020 __malloc_lock
0200d6ac g     F .text	000000bc sbrk
02008914 g     F .text	000001fc _fflush_r
0200be0c g     F .text	000000b4 _calloc_r
0201595c g     O .rwdata	00000008 alt_flash_dev_list
020017cc g     F .text	00000114 JY901Init
0200e4cc g     F .text	00000044 alt_write_flash_command_16bit_device_16bit_mode
0201596c g       *ABS*	00000000 __bss_start
0200a45c g     F .text	00000098 memset
020018e0 g     F .text	00000058 main
020159d4 g     O .bss	00000004 alt_envp
020159c0 g     O .bss	00000004 __malloc_max_total_mem
020100d4 g     F .text	00000058 altera_avalon_jtag_uart_write_fd
0200321c g     F .text	00000078 __ltsf2
0200bb8c g     F .text	00000008 __sclose
02002470 g     F .text	00000008 matherr
04000000 g       *ABS*	00000000 __alt_heap_limit
0200c040 g     F .text	00000014 fclose
0200418c g     F .text	00000074 __truncdfsf2
02015b44 g     O .bss	00000190 _atexit0
02007360 g     F .text	000015b4 _dtoa_r
02009ab8 g     F .text	00000740 _malloc_r
02015950 g     O .rwdata	00000004 alt_errno
0200e558 g     F .text	00000048 alt_write_flash_command_32bit_device_32bit_mode
020097a8 g     F .text	000000b8 _fwalk
0201591c g     O .rwdata	00000001 g_stopFlag
0200dec4 g     F .text	00000164 alt_write_value_to_flash
0200e5d4 g     F .text	00000034 alt_write_native_16bit
02004410 g     F .text	00000060 __divsi3
02013844 g     O .rodata	00000014 __thenan_df
02008e04 g     F .text	0000012c _malloc_trim_r
02001d30 g     F .text	0000002c GetHeight
0201379c g       *ABS*	00000000 __CTOR_END__
02002e50 g     F .text	000001e0 __mulsf3
02001578 g     F .text	00000080 I2C_read
0200fac8 g     F .text	00000280 alt_epcs_flash_write
0200bcd8 g     F .text	000000bc strcmp
0201379c g       *ABS*	00000000 __DTOR_LIST__
0200c860 g     F .text	00000088 __nedf2
02002478 g     F .text	000000bc __fixunsdfdi
020016ac g     F .text	0000005c write_JY901
0200d918 g     F .text	00000034 alt_irq_init
0200d64c g     F .text	00000060 alt_release_fd
02001b84 g     F .text	000000cc moto_init
02013858 g     O .rodata	00000100 __clz_tab
020159b4 g     O .bss	00000004 _PathLocale
02015a14 g     O .bss	0000000c yawPID
02013324 g     F .text	00000014 atexit
0200bd94 g     F .text	00000078 _write_r
02009908 g     F .text	0000001c setlocale
02015a20 g     O .bss	0000000c rollPID
02015a2c g     O .bss	0000000c heightPID
02015990 g     O .bss	00000002 fbm320Standard
02015924 g     O .rwdata	00000004 _impure_ptr
020159cc g     O .bss	00000004 alt_argc
02011ec8 g     F .text	00000064 _do_dtors
02000000 g       *ABS*	00000000 __alt_mem_sdram_0
02000020 g       .exceptions	00000000 alt_irq_entry
0200a6b0 g     F .text	00000080 __ulp
0200badc g     F .text	00000040 __isinfd
02008c60 g     F .text	00000018 __fp_unlock_all
0201593c g     O .rwdata	00000008 alt_fs_list
0200e484 g     F .text	00000048 alt_write_flash_command_32bit_device_8bit_mode
02001420 g     F .text	000000ac I2C_init
02009874 g     F .text	00000010 localeconv
02011724 g     F .text	000000b4 epcs_read_buffer
02002178 g     F .text	000002c8 __ieee754_sqrt
0200f748 g     F .text	00000054 alt_epcs_flash_init
020013dc g     F .text	00000044 fbm320Init
0200cd24 g     F .text	00000050 alt_ic_isr_register
0201596c g       *ABS*	00000000 _edata
02001e10 g     F .text	0000006c Uart_232_send
02010c28 g     F .text	00000058 altera_avalon_uart_read_fd
02015cd4 g       *ABS*	00000000 _end
02011f2c g     F .text	0000007c alt_flash_open_dev
020105d0 g     F .text	000000f4 altera_avalon_jtag_uart_ioctl
02015a38 g     O .bss	0000000c pitchPID
0200ce10 g     F .text	000000a0 alt_ic_irq_disable
0200bbfc g     F .text	0000007c __swrite
02015934 g     O .rwdata	00000004 __malloc_trim_threshold
02013338 g     F .text	00000038 exit
020096e0 g     F .text	000000c8 _fwalk_reent
02003414 g     F .text	000000c0 __floatunsisf
0200acac g     F .text	0000018c __mdiff
02011fa8 g     F .text	00000054 alt_flash_close_dev
02004470 g     F .text	00000060 __modsi3
04000000 g       *ABS*	00000000 __alt_data_end
02000020 g     F .exceptions	00000000 alt_exception
02008ba0 g     F .text	00000004 __sfp_lock_release
020110c0 g     F .text	00000060 altera_avalon_uart_close
020048c4 g     F .text	000000a8 __fpcmp_parts_f
0201370c g     F .text	00000020 _exit
02002440 g     F .text	00000030 __isnand
02011a38 g     F .text	00000154 alt_alarm_start
020044e0 g     F .text	00000098 __muldi3
02009924 g     F .text	00000194 __smakebuf_r
0200e608 g     F .text	00000030 alt_write_native_32bit
02005070 g     F .text	00000074 strlen
020117d8 g     F .text	00000050 epcs_write_enable
02012214 g     F .text	00000188 open
02004eac g     F .text	00000088 __gedf2
02015998 g     O .bss	00000004 stop
0200ddcc g     F .text	00000090 alt_flash_cfi_get_info
02000edc g     F .text	000001c8 PitchCalc
020010a4 g     F .text	0000015c YawCalc
02015954 g     O .rwdata	00000004 alt_priority_mask
0200cd74 g     F .text	0000009c alt_ic_irq_enable
02006fe8 g     F .text	00000024 __vfprintf_internal
02011120 g     F .text	00000230 altera_avalon_uart_read
020038e4 g     F .text	00000080 __subdf3
0200fff0 g     F .text	0000008c alt_epcs_flash_read
0200a58c g     F .text	000000c4 __lo0bits
02015964 g     O .rwdata	00000008 alt_alarm_list
02011e64 g     F .text	00000064 _do_ctors
020159a8 g     O .bss	00000002 status
02001cb8 g     F .text	00000078 TimerInit
0200ca68 g     F .text	000000fc close
02002dec g     F .text	00000064 __addsf3
020125c0 g     F .text	00000068 alt_program_amd
02004998 g     F .text	00000314 __pack_d
02001708 g     F .text	000000c4 read_JY901
020015f8 g     F .text	000000b4 I2C_write
02015992 g     O .bss	00000001 g_flag5ms
00000000  w      *UND*	00000000 free
02008ba4 g     F .text	00000004 __sinit_lock_acquire
0201188c g     F .text	000000d8 epcs_write_buffer
0200b1a8 g     F .text	00000100 __multadd
0200a4f4 g     F .text	00000028 _Bfree



Disassembly of section .exceptions:

02000020 <alt_exception>:
         * Process an exception.  For all exceptions we must preserve all
         * caller saved registers on the stack (See the Nios2 ABI
         * documentation for details).
         */

        addi  sp, sp, -76
 2000020:	deffed04 	addi	sp,sp,-76

#endif

#endif

        stw   ra,  0(sp)
 2000024:	dfc00015 	stw	ra,0(sp)
        /*
         * Leave a gap in the stack frame at 4(sp) for the muldiv handler to
         * store zero into.
         */

        stw   r1,   8(sp)
 2000028:	d8400215 	stw	at,8(sp)
        stw   r2,  12(sp)
 200002c:	d8800315 	stw	r2,12(sp)
        stw   r3,  16(sp)
 2000030:	d8c00415 	stw	r3,16(sp)
        stw   r4,  20(sp)
 2000034:	d9000515 	stw	r4,20(sp)
        stw   r5,  24(sp)
 2000038:	d9400615 	stw	r5,24(sp)
        stw   r6,  28(sp)
 200003c:	d9800715 	stw	r6,28(sp)
        stw   r7,  32(sp)
 2000040:	d9c00815 	stw	r7,32(sp)

        rdctl r5, estatus
 2000044:	000b307a 	rdctl	r5,estatus

        stw   r8,  36(sp)
 2000048:	da000915 	stw	r8,36(sp)
        stw   r9,  40(sp)
 200004c:	da400a15 	stw	r9,40(sp)
        stw   r10, 44(sp)
 2000050:	da800b15 	stw	r10,44(sp)
        stw   r11, 48(sp)
 2000054:	dac00c15 	stw	r11,48(sp)
        stw   r12, 52(sp)
 2000058:	db000d15 	stw	r12,52(sp)
        stw   r13, 56(sp)
 200005c:	db400e15 	stw	r13,56(sp)
        stw   r14, 60(sp)
 2000060:	db800f15 	stw	r14,60(sp)
        stw   r15, 64(sp)
 2000064:	dbc01015 	stw	r15,64(sp)
        /*
         * ea-4 contains the address of the instruction being executed
         * when the exception occured. For interrupt exceptions, we will
         * will be re-issue the isntruction. Store it in 72(sp)
         */
        stw   r5,  68(sp)  /* estatus */
 2000068:	d9401115 	stw	r5,68(sp)
        addi  r15, ea, -4  /* instruction that caused exception */
 200006c:	ebffff04 	addi	r15,ea,-4
        stw   r15,  72(sp)
 2000070:	dbc01215 	stw	r15,72(sp)
#else
        /*
         * Test to see if the exception was a software exception or caused 
         * by an external interrupt, and vector accordingly.
         */
        rdctl r4, ipending
 2000074:	0009313a 	rdctl	r4,ipending
        andi  r2, r5, 1
 2000078:	2880004c 	andi	r2,r5,1
        beq   r2, zero, .Lnot_irq
 200007c:	10000326 	beq	r2,zero,200008c <alt_exception+0x6c>
        beq   r4, zero, .Lnot_irq
 2000080:	20000226 	beq	r4,zero,200008c <alt_exception+0x6c>
        /*
         * Now that all necessary registers have been preserved, call 
         * alt_irq_handler() to process the interrupts.
         */

        call alt_irq_handler
 2000084:	20000ec0 	call	20000ec <alt_irq_handler>

        .section .exceptions.irqreturn, "xa"

        br    .Lexception_exit
 2000088:	00000306 	br	2000098 <alt_exception+0x78>
         * upon completion, so we write ea (address of instruction *after*
         * the one where the exception occured) into 72(sp). The actual
         * instruction that caused the exception is written in r2, which these
         * handlers will utilize.
         */
        stw   ea,  72(sp)  /* Don't re-issue */
 200008c:	df401215 	stw	ea,72(sp)
        ldw   r2, -4(ea)   /* Instruction that caused exception */
 2000090:	e8bfff17 	ldw	r2,-4(ea)
#ifdef NIOS2_HAS_DEBUG_STUB
       /*
        *  Either tell the user now (if there is a debugger attached) or go into
        *  the debug monitor which will loop until a debugger is attached.
        */
        break
 2000094:	003da03a 	break	0
        /* 
         * Restore the saved registers, so that all general purpose registers 
         * have been restored to their state at the time the interrupt occured.
         */

        ldw   r5,  68(sp)
 2000098:	d9401117 	ldw	r5,68(sp)
        ldw   ea,  72(sp)  /* This becomes the PC once eret is executed */
 200009c:	df401217 	ldw	ea,72(sp)
        ldw   ra,   0(sp)
 20000a0:	dfc00017 	ldw	ra,0(sp)

        wrctl estatus, r5
 20000a4:	2801707a 	wrctl	estatus,r5

        ldw   r1,   8(sp)
 20000a8:	d8400217 	ldw	at,8(sp)
        ldw   r2,  12(sp)
 20000ac:	d8800317 	ldw	r2,12(sp)
        ldw   r3,  16(sp)
 20000b0:	d8c00417 	ldw	r3,16(sp)
        ldw   r4,  20(sp)
 20000b4:	d9000517 	ldw	r4,20(sp)
        ldw   r5,  24(sp)
 20000b8:	d9400617 	ldw	r5,24(sp)
        ldw   r6,  28(sp)
 20000bc:	d9800717 	ldw	r6,28(sp)
        ldw   r7,  32(sp)
 20000c0:	d9c00817 	ldw	r7,32(sp)
#ifdef ALT_STACK_CHECK
        ldw   et, %gprel(alt_exception_old_stack_limit)(gp)
#endif
#endif

        ldw   r8,  36(sp)
 20000c4:	da000917 	ldw	r8,36(sp)
        ldw   r9,  40(sp)
 20000c8:	da400a17 	ldw	r9,40(sp)
        ldw   r10, 44(sp)
 20000cc:	da800b17 	ldw	r10,44(sp)
        ldw   r11, 48(sp)
 20000d0:	dac00c17 	ldw	r11,48(sp)
        ldw   r12, 52(sp)
 20000d4:	db000d17 	ldw	r12,52(sp)
        ldw   r13, 56(sp)
 20000d8:	db400e17 	ldw	r13,56(sp)
        ldw   r14, 60(sp)
 20000dc:	db800f17 	ldw	r14,60(sp)
        ldw   r15, 64(sp)
 20000e0:	dbc01017 	ldw	r15,64(sp)
#endif

        ldw   sp,  76(sp)

#else
        addi  sp, sp, 76
 20000e4:	dec01304 	addi	sp,sp,76

        /*
         * Return to the interrupted instruction.
         */

        eret
 20000e8:	ef80083a 	eret

020000ec <alt_irq_handler>:
 * instruction is present if the macro ALT_CI_INTERRUPT_VECTOR defined.
 */

void alt_irq_handler (void) __attribute__ ((section (".exceptions")));
void alt_irq_handler (void)
{
 20000ec:	defff904 	addi	sp,sp,-28
 20000f0:	dfc00615 	stw	ra,24(sp)
 20000f4:	df000515 	stw	fp,20(sp)
 20000f8:	df000504 	addi	fp,sp,20
#ifndef NIOS2_EIC_PRESENT
static ALT_INLINE alt_u32 ALT_ALWAYS_INLINE alt_irq_pending (void)
{
  alt_u32 active;

  NIOS2_READ_IPENDING (active);
 20000fc:	0005313a 	rdctl	r2,ipending
 2000100:	e0bffc15 	stw	r2,-16(fp)

  return active;
 2000104:	e0bffc17 	ldw	r2,-16(fp)
   * Consider the case where the high priority interupt is asserted during
   * the interrupt entry sequence for a lower priority interrupt to see why
   * this is the case.
   */

  active = alt_irq_pending ();
 2000108:	e0bfff15 	stw	r2,-4(fp)

  do
  {
    i = 0;
 200010c:	e03ffd15 	stw	zero,-12(fp)
    mask = 1;
 2000110:	00800044 	movi	r2,1
 2000114:	e0bffe15 	stw	r2,-8(fp)
     * called to clear the interrupt condition.
     */

    do
    {
      if (active & mask)
 2000118:	e0ffff17 	ldw	r3,-4(fp)
 200011c:	e0bffe17 	ldw	r2,-8(fp)
 2000120:	1884703a 	and	r2,r3,r2
 2000124:	1005003a 	cmpeq	r2,r2,zero
 2000128:	1000161e 	bne	r2,zero,2000184 <alt_irq_handler+0x98>
      { 
#ifdef ALT_ENHANCED_INTERRUPT_API_PRESENT
        alt_irq[i].handler(alt_irq[i].context); 
 200012c:	e0bffd17 	ldw	r2,-12(fp)
 2000130:	00c08074 	movhi	r3,513
 2000134:	18d69104 	addi	r3,r3,23108
 2000138:	100490fa 	slli	r2,r2,3
 200013c:	10c5883a 	add	r2,r2,r3
 2000140:	11400017 	ldw	r5,0(r2)
 2000144:	e0bffd17 	ldw	r2,-12(fp)
 2000148:	00c08074 	movhi	r3,513
 200014c:	18d69104 	addi	r3,r3,23108
 2000150:	100490fa 	slli	r2,r2,3
 2000154:	10c5883a 	add	r2,r2,r3
 2000158:	10800104 	addi	r2,r2,4
 200015c:	11000017 	ldw	r4,0(r2)
 2000160:	283ee83a 	callr	r5
#ifndef NIOS2_EIC_PRESENT
static ALT_INLINE alt_u32 ALT_ALWAYS_INLINE alt_irq_pending (void)
{
  alt_u32 active;

  NIOS2_READ_IPENDING (active);
 2000164:	0005313a 	rdctl	r2,ipending
 2000168:	e0bffb15 	stw	r2,-20(fp)

  return active;
 200016c:	e0bffb17 	ldw	r2,-20(fp)
      mask <<= 1;
      i++;

    } while (1);

    active = alt_irq_pending ();
 2000170:	e0bfff15 	stw	r2,-4(fp)
    
  } while (active);
 2000174:	e0bfff17 	ldw	r2,-4(fp)
 2000178:	1004c03a 	cmpne	r2,r2,zero
 200017c:	103fe31e 	bne	r2,zero,200010c <alt_irq_handler+0x20>
 2000180:	00000706 	br	20001a0 <alt_irq_handler+0xb4>
#else
        alt_irq[i].handler(alt_irq[i].context, i); 
#endif
        break;
      }
      mask <<= 1;
 2000184:	e0bffe17 	ldw	r2,-8(fp)
 2000188:	1085883a 	add	r2,r2,r2
 200018c:	e0bffe15 	stw	r2,-8(fp)
      i++;
 2000190:	e0bffd17 	ldw	r2,-12(fp)
 2000194:	10800044 	addi	r2,r2,1
 2000198:	e0bffd15 	stw	r2,-12(fp)

    } while (1);
 200019c:	003fde06 	br	2000118 <alt_irq_handler+0x2c>
  /*
   * Notify the operating system that interrupt processing is complete.
   */ 

  ALT_OS_INT_EXIT();
}
 20001a0:	e037883a 	mov	sp,fp
 20001a4:	dfc00117 	ldw	ra,4(sp)
 20001a8:	df000017 	ldw	fp,0(sp)
 20001ac:	dec00204 	addi	sp,sp,8
 20001b0:	f800283a 	ret

Disassembly of section .text:

020001b4 <_start>:

    /* Assume the data cache size is always a power of two. */
#if NIOS2_DCACHE_SIZE > 0x8000
    movhi r2, %hi(NIOS2_DCACHE_SIZE)
#else
    movui r2, NIOS2_DCACHE_SIZE
 20001b4:	00820014 	movui	r2,2048
#endif

0:
    initd 0(r2)
 20001b8:	10000033 	initd	0(r2)
    addi r2, r2, -NIOS2_DCACHE_LINE_SIZE
 20001bc:	10bff804 	addi	r2,r2,-32
    bgt r2, zero, 0b
 20001c0:	00bffd16 	blt	zero,r2,20001b8 <_start+0x4>
#if (NIOS2_NUM_OF_SHADOW_REG_SETS == 0)    
    /*
     * Now that the caches are initialized, set up the stack pointer.
     * The value provided by the linker is assumed to be correctly aligned.
     */
    movhi sp, %hi(__alt_stack_pointer)
 20001c4:	06c10034 	movhi	sp,1024
    ori sp, sp, %lo(__alt_stack_pointer)
 20001c8:	dec00014 	ori	sp,sp,0

    /* Set up the global pointer. */
    movhi gp, %hi(_gp)
 20001cc:	06808074 	movhi	gp,513
    ori gp, gp, %lo(_gp)
 20001d0:	d6b64714 	ori	gp,gp,55580
 */
#ifndef ALT_SIM_OPTIMIZE
    /* Log that the BSS is about to be cleared. */
    ALT_LOG_PUTS(alt_log_msg_bss)

    movhi r2, %hi(__bss_start)
 20001d4:	00808074 	movhi	r2,513
    ori r2, r2, %lo(__bss_start)
 20001d8:	10965b14 	ori	r2,r2,22892

    movhi r3, %hi(__bss_end)
 20001dc:	00c08074 	movhi	r3,513
    ori r3, r3, %lo(__bss_end)
 20001e0:	18d73514 	ori	r3,r3,23764

    beq r2, r3, 1f
 20001e4:	10c00326 	beq	r2,r3,20001f4 <_start+0x40>

0:
    stw zero, (r2)
 20001e8:	10000015 	stw	zero,0(r2)
    addi r2, r2, 4
 20001ec:	10800104 	addi	r2,r2,4
    bltu r2, r3, 0b
 20001f0:	10fffd36 	bltu	r2,r3,20001e8 <_start+0x34>

    /* Log that alt_main is about to be called. */
    ALT_LOG_PUTS(alt_log_msg_alt_main)

    /* Call the C entry point. It should never return. */
    call alt_main
 20001f4:	200d4200 	call	200d420 <alt_main>

020001f8 <alt_after_alt_main>:

    /* Wait in infinite loop in case alt_main does return. */
alt_after_alt_main:
    br alt_after_alt_main
 20001f8:	003fff06 	br	20001f8 <alt_after_alt_main>

020001fc <bspInit>:
#include "controller.h"
#include "app.h"
#include "unistd.h"


void bspInit(){
 20001fc:	defffe04 	addi	sp,sp,-8
 2000200:	dfc00115 	stw	ra,4(sp)
 2000204:	df000015 	stw	fp,0(sp)
 2000208:	d839883a 	mov	fp,sp
	moto_init();
 200020c:	2001b840 	call	2001b84 <moto_init>
	PIDInit();
 2000210:	2000c4c0 	call	2000c4c <PIDInit>
	fbm320Init();
 2000214:	20013dc0 	call	20013dc <fbm320Init>
	JY901Init();
 2000218:	20017cc0 	call	20017cc <JY901Init>
	Uart_232_initial();
 200021c:	2001fe00 	call	2001fe0 <Uart_232_initial>
	TimerInit();
 2000220:	2001cb80 	call	2001cb8 <TimerInit>
}
 2000224:	e037883a 	mov	sp,fp
 2000228:	dfc00117 	ldw	ra,4(sp)
 200022c:	df000017 	ldw	fp,0(sp)
 2000230:	dec00204 	addi	sp,sp,8
 2000234:	f800283a 	ret

02000238 <MotorControl>:


void MotorControl(){
 2000238:	deffe704 	addi	sp,sp,-100
 200023c:	dfc01815 	stw	ra,96(sp)
 2000240:	df001715 	stw	fp,92(sp)
 2000244:	dc401615 	stw	r17,88(sp)
 2000248:	dc001515 	stw	r16,84(sp)
 200024c:	df001504 	addi	fp,sp,84
	float rollOut,pitchOut,yawOut;
	static int heightOut;
	int rotorOutFirst,rotorOutSecond,rotorOutThird,rotorOutFourth;
	float omega1,omega2,omega3,omega4;

	float J_x = 0.01444,J_y = 0.01444,J_z = 0.02770;
 2000250:	008f1b74 	movhi	r2,15469
 2000254:	10a57004 	addi	r2,r2,-27200
 2000258:	e0bff415 	stw	r2,-48(fp)
 200025c:	008f1b74 	movhi	r2,15469
 2000260:	10a57004 	addi	r2,r2,-27200
 2000264:	e0bff315 	stw	r2,-52(fp)
 2000268:	008f38f4 	movhi	r2,15587
 200026c:	10bac704 	addi	r2,r2,-5348
 2000270:	e0bff215 	stw	r2,-56(fp)
	float rollTau,pitchTau,yawTau,T;
	const float m = 80;
 2000274:	0090a834 	movhi	r2,17056
 2000278:	e0bfed15 	stw	r2,-76(fp)
	const float g = 9.8;
 200027c:	00904774 	movhi	r2,16669
 2000280:	10b33344 	addi	r2,r2,-13107
 2000284:	e0bfec15 	stw	r2,-80(fp)

	rollOut = RollCalc(0);
 2000288:	0009883a 	mov	r4,zero
 200028c:	2000d140 	call	2000d14 <RollCalc>
 2000290:	e0bfff15 	stw	r2,-4(fp)
	pitchOut = PitchCalc(0);
 2000294:	0009883a 	mov	r4,zero
 2000298:	2000edc0 	call	2000edc <PitchCalc>
 200029c:	e0bffe15 	stw	r2,-8(fp)
	yawOut = YawCalc(0);
 20002a0:	0009883a 	mov	r4,zero
 20002a4:	20010a40 	call	20010a4 <YawCalc>
 20002a8:	e0bffd15 	stw	r2,-12(fp)
	heightOut = HeightCalc(1.06);
 20002ac:	010fe234 	movhi	r4,16264
 20002b0:	212b8504 	addi	r4,r4,-20972
 20002b4:	20012000 	call	2001200 <HeightCalc>
 20002b8:	1009883a 	mov	r4,r2
 20002bc:	200332c0 	call	200332c <__fixsfsi>
 20002c0:	d0a01415 	stw	r2,-32688(gp)

	heightOut = 0;					//test
 20002c4:	d0201415 	stw	zero,-32688(gp)

	rollTau = J_x * rollOut;
 20002c8:	e13ff417 	ldw	r4,-48(fp)
 20002cc:	e17fff17 	ldw	r5,-4(fp)
 20002d0:	2002e500 	call	2002e50 <__mulsf3>
 20002d4:	e0bff115 	stw	r2,-60(fp)
	pitchTau = J_y * pitchOut;
 20002d8:	e13ff317 	ldw	r4,-52(fp)
 20002dc:	e17ffe17 	ldw	r5,-8(fp)
 20002e0:	2002e500 	call	2002e50 <__mulsf3>
 20002e4:	e0bff015 	stw	r2,-64(fp)
	yawTau = 0;//J_z * yawOut;
 20002e8:	e03fef15 	stw	zero,-68(fp)
	T = m*(heightOut + g);
 20002ec:	d1201417 	ldw	r4,-32688(gp)
 20002f0:	20032940 	call	2003294 <__floatsisf>
 20002f4:	1009883a 	mov	r4,r2
 20002f8:	e17fec17 	ldw	r5,-80(fp)
 20002fc:	2002dec0 	call	2002dec <__addsf3>
 2000300:	1009883a 	mov	r4,r2
 2000304:	e17fed17 	ldw	r5,-76(fp)
 2000308:	2002e500 	call	2002e50 <__mulsf3>
 200030c:	e0bfee15 	stw	r2,-72(fp)

	omega1 = sqrt(9972.078181 * T + 44320.34747 * rollTau + 44320.34747 * pitchTau + 367917.5865 * yawTau);
 2000310:	e13fee17 	ldw	r4,-72(fp)
 2000314:	20033c00 	call	20033c0 <__extendsfdf2>
 2000318:	100b883a 	mov	r5,r2
 200031c:	180d883a 	mov	r6,r3
 2000320:	2809883a 	mov	r4,r5
 2000324:	300b883a 	mov	r5,r6
 2000328:	018075b4 	movhi	r6,470
 200032c:	31b0c584 	addi	r6,r6,-15594
 2000330:	01d030f4 	movhi	r7,16579
 2000334:	39de8284 	addi	r7,r7,31242
 2000338:	20039d80 	call	20039d8 <__muldf3>
 200033c:	1009883a 	mov	r4,r2
 2000340:	180b883a 	mov	r5,r3
 2000344:	2021883a 	mov	r16,r4
 2000348:	2823883a 	mov	r17,r5
 200034c:	e13ff117 	ldw	r4,-60(fp)
 2000350:	20033c00 	call	20033c0 <__extendsfdf2>
 2000354:	100b883a 	mov	r5,r2
 2000358:	180d883a 	mov	r6,r3
 200035c:	2809883a 	mov	r4,r5
 2000360:	300b883a 	mov	r5,r6
 2000364:	01879e74 	movhi	r6,7801
 2000368:	3199f2c4 	addi	r6,r6,26571
 200036c:	01d039b4 	movhi	r7,16614
 2000370:	39e902c4 	addi	r7,r7,-23541
 2000374:	20039d80 	call	20039d8 <__muldf3>
 2000378:	1009883a 	mov	r4,r2
 200037c:	180b883a 	mov	r5,r3
 2000380:	2005883a 	mov	r2,r4
 2000384:	2807883a 	mov	r3,r5
 2000388:	8009883a 	mov	r4,r16
 200038c:	880b883a 	mov	r5,r17
 2000390:	100d883a 	mov	r6,r2
 2000394:	180f883a 	mov	r7,r3
 2000398:	20039640 	call	2003964 <__adddf3>
 200039c:	1009883a 	mov	r4,r2
 20003a0:	180b883a 	mov	r5,r3
 20003a4:	2021883a 	mov	r16,r4
 20003a8:	2823883a 	mov	r17,r5
 20003ac:	e13ff017 	ldw	r4,-64(fp)
 20003b0:	20033c00 	call	20033c0 <__extendsfdf2>
 20003b4:	100b883a 	mov	r5,r2
 20003b8:	180d883a 	mov	r6,r3
 20003bc:	2809883a 	mov	r4,r5
 20003c0:	300b883a 	mov	r5,r6
 20003c4:	01879e74 	movhi	r6,7801
 20003c8:	3199f2c4 	addi	r6,r6,26571
 20003cc:	01d039b4 	movhi	r7,16614
 20003d0:	39e902c4 	addi	r7,r7,-23541
 20003d4:	20039d80 	call	20039d8 <__muldf3>
 20003d8:	1009883a 	mov	r4,r2
 20003dc:	180b883a 	mov	r5,r3
 20003e0:	2005883a 	mov	r2,r4
 20003e4:	2807883a 	mov	r3,r5
 20003e8:	8009883a 	mov	r4,r16
 20003ec:	880b883a 	mov	r5,r17
 20003f0:	100d883a 	mov	r6,r2
 20003f4:	180f883a 	mov	r7,r3
 20003f8:	20039640 	call	2003964 <__adddf3>
 20003fc:	1009883a 	mov	r4,r2
 2000400:	180b883a 	mov	r5,r3
 2000404:	2021883a 	mov	r16,r4
 2000408:	2823883a 	mov	r17,r5
 200040c:	e13fef17 	ldw	r4,-68(fp)
 2000410:	20033c00 	call	20033c0 <__extendsfdf2>
 2000414:	100b883a 	mov	r5,r2
 2000418:	180d883a 	mov	r6,r3
 200041c:	2809883a 	mov	r4,r5
 2000420:	300b883a 	mov	r5,r6
 2000424:	019624f4 	movhi	r6,22675
 2000428:	319d2f04 	addi	r6,r6,29884
 200042c:	01d045b4 	movhi	r7,16662
 2000430:	39dd2d84 	addi	r7,r7,29878
 2000434:	20039d80 	call	20039d8 <__muldf3>
 2000438:	1009883a 	mov	r4,r2
 200043c:	180b883a 	mov	r5,r3
 2000440:	2005883a 	mov	r2,r4
 2000444:	2807883a 	mov	r3,r5
 2000448:	8009883a 	mov	r4,r16
 200044c:	880b883a 	mov	r5,r17
 2000450:	100d883a 	mov	r6,r2
 2000454:	180f883a 	mov	r7,r3
 2000458:	20039640 	call	2003964 <__adddf3>
 200045c:	1009883a 	mov	r4,r2
 2000460:	180b883a 	mov	r5,r3
 2000464:	2005883a 	mov	r2,r4
 2000468:	2807883a 	mov	r3,r5
 200046c:	1009883a 	mov	r4,r2
 2000470:	180b883a 	mov	r5,r3
 2000474:	20020480 	call	2002048 <sqrt>
 2000478:	100b883a 	mov	r5,r2
 200047c:	180d883a 	mov	r6,r3
 2000480:	2809883a 	mov	r4,r5
 2000484:	300b883a 	mov	r5,r6
 2000488:	200418c0 	call	200418c <__truncdfsf2>
 200048c:	e0bff815 	stw	r2,-32(fp)
	omega2 = sqrt(9972.078181 * T + 44320.34747 * rollTau - 44320.34747 * pitchTau - 367917.5865 * yawTau);
 2000490:	e13fee17 	ldw	r4,-72(fp)
 2000494:	20033c00 	call	20033c0 <__extendsfdf2>
 2000498:	100b883a 	mov	r5,r2
 200049c:	180d883a 	mov	r6,r3
 20004a0:	2809883a 	mov	r4,r5
 20004a4:	300b883a 	mov	r5,r6
 20004a8:	018075b4 	movhi	r6,470
 20004ac:	31b0c584 	addi	r6,r6,-15594
 20004b0:	01d030f4 	movhi	r7,16579
 20004b4:	39de8284 	addi	r7,r7,31242
 20004b8:	20039d80 	call	20039d8 <__muldf3>
 20004bc:	1009883a 	mov	r4,r2
 20004c0:	180b883a 	mov	r5,r3
 20004c4:	2021883a 	mov	r16,r4
 20004c8:	2823883a 	mov	r17,r5
 20004cc:	e13ff117 	ldw	r4,-60(fp)
 20004d0:	20033c00 	call	20033c0 <__extendsfdf2>
 20004d4:	100b883a 	mov	r5,r2
 20004d8:	180d883a 	mov	r6,r3
 20004dc:	2809883a 	mov	r4,r5
 20004e0:	300b883a 	mov	r5,r6
 20004e4:	01879e74 	movhi	r6,7801
 20004e8:	3199f2c4 	addi	r6,r6,26571
 20004ec:	01d039b4 	movhi	r7,16614
 20004f0:	39e902c4 	addi	r7,r7,-23541
 20004f4:	20039d80 	call	20039d8 <__muldf3>
 20004f8:	1009883a 	mov	r4,r2
 20004fc:	180b883a 	mov	r5,r3
 2000500:	2005883a 	mov	r2,r4
 2000504:	2807883a 	mov	r3,r5
 2000508:	8009883a 	mov	r4,r16
 200050c:	880b883a 	mov	r5,r17
 2000510:	100d883a 	mov	r6,r2
 2000514:	180f883a 	mov	r7,r3
 2000518:	20039640 	call	2003964 <__adddf3>
 200051c:	1009883a 	mov	r4,r2
 2000520:	180b883a 	mov	r5,r3
 2000524:	2021883a 	mov	r16,r4
 2000528:	2823883a 	mov	r17,r5
 200052c:	e13ff017 	ldw	r4,-64(fp)
 2000530:	20033c00 	call	20033c0 <__extendsfdf2>
 2000534:	100b883a 	mov	r5,r2
 2000538:	180d883a 	mov	r6,r3
 200053c:	2809883a 	mov	r4,r5
 2000540:	300b883a 	mov	r5,r6
 2000544:	01879e74 	movhi	r6,7801
 2000548:	3199f2c4 	addi	r6,r6,26571
 200054c:	01f039b4 	movhi	r7,49382
 2000550:	39e902c4 	addi	r7,r7,-23541
 2000554:	20039d80 	call	20039d8 <__muldf3>
 2000558:	1009883a 	mov	r4,r2
 200055c:	180b883a 	mov	r5,r3
 2000560:	2005883a 	mov	r2,r4
 2000564:	2807883a 	mov	r3,r5
 2000568:	8009883a 	mov	r4,r16
 200056c:	880b883a 	mov	r5,r17
 2000570:	100d883a 	mov	r6,r2
 2000574:	180f883a 	mov	r7,r3
 2000578:	20039640 	call	2003964 <__adddf3>
 200057c:	1009883a 	mov	r4,r2
 2000580:	180b883a 	mov	r5,r3
 2000584:	2021883a 	mov	r16,r4
 2000588:	2823883a 	mov	r17,r5
 200058c:	e13fef17 	ldw	r4,-68(fp)
 2000590:	20033c00 	call	20033c0 <__extendsfdf2>
 2000594:	100b883a 	mov	r5,r2
 2000598:	180d883a 	mov	r6,r3
 200059c:	2809883a 	mov	r4,r5
 20005a0:	300b883a 	mov	r5,r6
 20005a4:	019624f4 	movhi	r6,22675
 20005a8:	319d2f04 	addi	r6,r6,29884
 20005ac:	01f045b4 	movhi	r7,49430
 20005b0:	39dd2d84 	addi	r7,r7,29878
 20005b4:	20039d80 	call	20039d8 <__muldf3>
 20005b8:	1009883a 	mov	r4,r2
 20005bc:	180b883a 	mov	r5,r3
 20005c0:	2005883a 	mov	r2,r4
 20005c4:	2807883a 	mov	r3,r5
 20005c8:	8009883a 	mov	r4,r16
 20005cc:	880b883a 	mov	r5,r17
 20005d0:	100d883a 	mov	r6,r2
 20005d4:	180f883a 	mov	r7,r3
 20005d8:	20039640 	call	2003964 <__adddf3>
 20005dc:	1009883a 	mov	r4,r2
 20005e0:	180b883a 	mov	r5,r3
 20005e4:	2005883a 	mov	r2,r4
 20005e8:	2807883a 	mov	r3,r5
 20005ec:	1009883a 	mov	r4,r2
 20005f0:	180b883a 	mov	r5,r3
 20005f4:	20020480 	call	2002048 <sqrt>
 20005f8:	100b883a 	mov	r5,r2
 20005fc:	180d883a 	mov	r6,r3
 2000600:	2809883a 	mov	r4,r5
 2000604:	300b883a 	mov	r5,r6
 2000608:	200418c0 	call	200418c <__truncdfsf2>
 200060c:	e0bff715 	stw	r2,-36(fp)
	omega3 = sqrt(9972.078181 * T - 44320.34747 * rollTau - 44320.34747 * pitchTau + 367917.5865 * yawTau);
 2000610:	e13fee17 	ldw	r4,-72(fp)
 2000614:	20033c00 	call	20033c0 <__extendsfdf2>
 2000618:	100b883a 	mov	r5,r2
 200061c:	180d883a 	mov	r6,r3
 2000620:	2809883a 	mov	r4,r5
 2000624:	300b883a 	mov	r5,r6
 2000628:	018075b4 	movhi	r6,470
 200062c:	31b0c584 	addi	r6,r6,-15594
 2000630:	01d030f4 	movhi	r7,16579
 2000634:	39de8284 	addi	r7,r7,31242
 2000638:	20039d80 	call	20039d8 <__muldf3>
 200063c:	1009883a 	mov	r4,r2
 2000640:	180b883a 	mov	r5,r3
 2000644:	2021883a 	mov	r16,r4
 2000648:	2823883a 	mov	r17,r5
 200064c:	e13ff117 	ldw	r4,-60(fp)
 2000650:	20033c00 	call	20033c0 <__extendsfdf2>
 2000654:	100b883a 	mov	r5,r2
 2000658:	180d883a 	mov	r6,r3
 200065c:	2809883a 	mov	r4,r5
 2000660:	300b883a 	mov	r5,r6
 2000664:	01879e74 	movhi	r6,7801
 2000668:	3199f2c4 	addi	r6,r6,26571
 200066c:	01f039b4 	movhi	r7,49382
 2000670:	39e902c4 	addi	r7,r7,-23541
 2000674:	20039d80 	call	20039d8 <__muldf3>
 2000678:	1009883a 	mov	r4,r2
 200067c:	180b883a 	mov	r5,r3
 2000680:	2005883a 	mov	r2,r4
 2000684:	2807883a 	mov	r3,r5
 2000688:	8009883a 	mov	r4,r16
 200068c:	880b883a 	mov	r5,r17
 2000690:	100d883a 	mov	r6,r2
 2000694:	180f883a 	mov	r7,r3
 2000698:	20039640 	call	2003964 <__adddf3>
 200069c:	1009883a 	mov	r4,r2
 20006a0:	180b883a 	mov	r5,r3
 20006a4:	2021883a 	mov	r16,r4
 20006a8:	2823883a 	mov	r17,r5
 20006ac:	e13ff017 	ldw	r4,-64(fp)
 20006b0:	20033c00 	call	20033c0 <__extendsfdf2>
 20006b4:	100b883a 	mov	r5,r2
 20006b8:	180d883a 	mov	r6,r3
 20006bc:	2809883a 	mov	r4,r5
 20006c0:	300b883a 	mov	r5,r6
 20006c4:	01879e74 	movhi	r6,7801
 20006c8:	3199f2c4 	addi	r6,r6,26571
 20006cc:	01f039b4 	movhi	r7,49382
 20006d0:	39e902c4 	addi	r7,r7,-23541
 20006d4:	20039d80 	call	20039d8 <__muldf3>
 20006d8:	1009883a 	mov	r4,r2
 20006dc:	180b883a 	mov	r5,r3
 20006e0:	2005883a 	mov	r2,r4
 20006e4:	2807883a 	mov	r3,r5
 20006e8:	8009883a 	mov	r4,r16
 20006ec:	880b883a 	mov	r5,r17
 20006f0:	100d883a 	mov	r6,r2
 20006f4:	180f883a 	mov	r7,r3
 20006f8:	20039640 	call	2003964 <__adddf3>
 20006fc:	1009883a 	mov	r4,r2
 2000700:	180b883a 	mov	r5,r3
 2000704:	2021883a 	mov	r16,r4
 2000708:	2823883a 	mov	r17,r5
 200070c:	e13fef17 	ldw	r4,-68(fp)
 2000710:	20033c00 	call	20033c0 <__extendsfdf2>
 2000714:	100b883a 	mov	r5,r2
 2000718:	180d883a 	mov	r6,r3
 200071c:	2809883a 	mov	r4,r5
 2000720:	300b883a 	mov	r5,r6
 2000724:	019624f4 	movhi	r6,22675
 2000728:	319d2f04 	addi	r6,r6,29884
 200072c:	01d045b4 	movhi	r7,16662
 2000730:	39dd2d84 	addi	r7,r7,29878
 2000734:	20039d80 	call	20039d8 <__muldf3>
 2000738:	1009883a 	mov	r4,r2
 200073c:	180b883a 	mov	r5,r3
 2000740:	2005883a 	mov	r2,r4
 2000744:	2807883a 	mov	r3,r5
 2000748:	8009883a 	mov	r4,r16
 200074c:	880b883a 	mov	r5,r17
 2000750:	100d883a 	mov	r6,r2
 2000754:	180f883a 	mov	r7,r3
 2000758:	20039640 	call	2003964 <__adddf3>
 200075c:	1009883a 	mov	r4,r2
 2000760:	180b883a 	mov	r5,r3
 2000764:	2005883a 	mov	r2,r4
 2000768:	2807883a 	mov	r3,r5
 200076c:	1009883a 	mov	r4,r2
 2000770:	180b883a 	mov	r5,r3
 2000774:	20020480 	call	2002048 <sqrt>
 2000778:	100b883a 	mov	r5,r2
 200077c:	180d883a 	mov	r6,r3
 2000780:	2809883a 	mov	r4,r5
 2000784:	300b883a 	mov	r5,r6
 2000788:	200418c0 	call	200418c <__truncdfsf2>
 200078c:	e0bff615 	stw	r2,-40(fp)
	omega4 = sqrt(9972.078181 * T - 44320.34747 * rollTau + 44320.34747 * pitchTau - 367917.5865 * yawTau);
 2000790:	e13fee17 	ldw	r4,-72(fp)
 2000794:	20033c00 	call	20033c0 <__extendsfdf2>
 2000798:	100b883a 	mov	r5,r2
 200079c:	180d883a 	mov	r6,r3
 20007a0:	2809883a 	mov	r4,r5
 20007a4:	300b883a 	mov	r5,r6
 20007a8:	018075b4 	movhi	r6,470
 20007ac:	31b0c584 	addi	r6,r6,-15594
 20007b0:	01d030f4 	movhi	r7,16579
 20007b4:	39de8284 	addi	r7,r7,31242
 20007b8:	20039d80 	call	20039d8 <__muldf3>
 20007bc:	1009883a 	mov	r4,r2
 20007c0:	180b883a 	mov	r5,r3
 20007c4:	2021883a 	mov	r16,r4
 20007c8:	2823883a 	mov	r17,r5
 20007cc:	e13ff117 	ldw	r4,-60(fp)
 20007d0:	20033c00 	call	20033c0 <__extendsfdf2>
 20007d4:	100b883a 	mov	r5,r2
 20007d8:	180d883a 	mov	r6,r3
 20007dc:	2809883a 	mov	r4,r5
 20007e0:	300b883a 	mov	r5,r6
 20007e4:	01879e74 	movhi	r6,7801
 20007e8:	3199f2c4 	addi	r6,r6,26571
 20007ec:	01f039b4 	movhi	r7,49382
 20007f0:	39e902c4 	addi	r7,r7,-23541
 20007f4:	20039d80 	call	20039d8 <__muldf3>
 20007f8:	1009883a 	mov	r4,r2
 20007fc:	180b883a 	mov	r5,r3
 2000800:	2005883a 	mov	r2,r4
 2000804:	2807883a 	mov	r3,r5
 2000808:	8009883a 	mov	r4,r16
 200080c:	880b883a 	mov	r5,r17
 2000810:	100d883a 	mov	r6,r2
 2000814:	180f883a 	mov	r7,r3
 2000818:	20039640 	call	2003964 <__adddf3>
 200081c:	1009883a 	mov	r4,r2
 2000820:	180b883a 	mov	r5,r3
 2000824:	2021883a 	mov	r16,r4
 2000828:	2823883a 	mov	r17,r5
 200082c:	e13ff017 	ldw	r4,-64(fp)
 2000830:	20033c00 	call	20033c0 <__extendsfdf2>
 2000834:	100b883a 	mov	r5,r2
 2000838:	180d883a 	mov	r6,r3
 200083c:	2809883a 	mov	r4,r5
 2000840:	300b883a 	mov	r5,r6
 2000844:	01879e74 	movhi	r6,7801
 2000848:	3199f2c4 	addi	r6,r6,26571
 200084c:	01d039b4 	movhi	r7,16614
 2000850:	39e902c4 	addi	r7,r7,-23541
 2000854:	20039d80 	call	20039d8 <__muldf3>
 2000858:	1009883a 	mov	r4,r2
 200085c:	180b883a 	mov	r5,r3
 2000860:	2005883a 	mov	r2,r4
 2000864:	2807883a 	mov	r3,r5
 2000868:	8009883a 	mov	r4,r16
 200086c:	880b883a 	mov	r5,r17
 2000870:	100d883a 	mov	r6,r2
 2000874:	180f883a 	mov	r7,r3
 2000878:	20039640 	call	2003964 <__adddf3>
 200087c:	1009883a 	mov	r4,r2
 2000880:	180b883a 	mov	r5,r3
 2000884:	2021883a 	mov	r16,r4
 2000888:	2823883a 	mov	r17,r5
 200088c:	e13fef17 	ldw	r4,-68(fp)
 2000890:	20033c00 	call	20033c0 <__extendsfdf2>
 2000894:	100b883a 	mov	r5,r2
 2000898:	180d883a 	mov	r6,r3
 200089c:	2809883a 	mov	r4,r5
 20008a0:	300b883a 	mov	r5,r6
 20008a4:	019624f4 	movhi	r6,22675
 20008a8:	319d2f04 	addi	r6,r6,29884
 20008ac:	01f045b4 	movhi	r7,49430
 20008b0:	39dd2d84 	addi	r7,r7,29878
 20008b4:	20039d80 	call	20039d8 <__muldf3>
 20008b8:	1009883a 	mov	r4,r2
 20008bc:	180b883a 	mov	r5,r3
 20008c0:	2005883a 	mov	r2,r4
 20008c4:	2807883a 	mov	r3,r5
 20008c8:	8009883a 	mov	r4,r16
 20008cc:	880b883a 	mov	r5,r17
 20008d0:	100d883a 	mov	r6,r2
 20008d4:	180f883a 	mov	r7,r3
 20008d8:	20039640 	call	2003964 <__adddf3>
 20008dc:	1009883a 	mov	r4,r2
 20008e0:	180b883a 	mov	r5,r3
 20008e4:	2005883a 	mov	r2,r4
 20008e8:	2807883a 	mov	r3,r5
 20008ec:	1009883a 	mov	r4,r2
 20008f0:	180b883a 	mov	r5,r3
 20008f4:	20020480 	call	2002048 <sqrt>
 20008f8:	100b883a 	mov	r5,r2
 20008fc:	180d883a 	mov	r6,r3
 2000900:	2809883a 	mov	r4,r5
 2000904:	300b883a 	mov	r5,r6
 2000908:	200418c0 	call	200418c <__truncdfsf2>
 200090c:	e0bff515 	stw	r2,-44(fp)

	//printf("omega: %f\n",omega1);

	rotorOutFirst = (int)((omega1/980+5.30)*10000);
 2000910:	e13ff817 	ldw	r4,-32(fp)
 2000914:	01511d74 	movhi	r5,17525
 2000918:	20030300 	call	2003030 <__divsf3>
 200091c:	1009883a 	mov	r4,r2
 2000920:	20033c00 	call	20033c0 <__extendsfdf2>
 2000924:	100b883a 	mov	r5,r2
 2000928:	180d883a 	mov	r6,r3
 200092c:	2809883a 	mov	r4,r5
 2000930:	300b883a 	mov	r5,r6
 2000934:	018cccf4 	movhi	r6,13107
 2000938:	318cccc4 	addi	r6,r6,13107
 200093c:	01d00574 	movhi	r7,16405
 2000940:	39ccccc4 	addi	r7,r7,13107
 2000944:	20039640 	call	2003964 <__adddf3>
 2000948:	1009883a 	mov	r4,r2
 200094c:	180b883a 	mov	r5,r3
 2000950:	2005883a 	mov	r2,r4
 2000954:	2807883a 	mov	r3,r5
 2000958:	1009883a 	mov	r4,r2
 200095c:	180b883a 	mov	r5,r3
 2000960:	000d883a 	mov	r6,zero
 2000964:	01d03134 	movhi	r7,16580
 2000968:	39e20004 	addi	r7,r7,-30720
 200096c:	20039d80 	call	20039d8 <__muldf3>
 2000970:	1009883a 	mov	r4,r2
 2000974:	180b883a 	mov	r5,r3
 2000978:	2005883a 	mov	r2,r4
 200097c:	2807883a 	mov	r3,r5
 2000980:	1009883a 	mov	r4,r2
 2000984:	180b883a 	mov	r5,r3
 2000988:	200407c0 	call	200407c <__fixdfsi>
 200098c:	e0bffc15 	stw	r2,-16(fp)
	rotorOutSecond = (int)((omega2/980+5.30)*10000);
 2000990:	e13ff717 	ldw	r4,-36(fp)
 2000994:	01511d74 	movhi	r5,17525
 2000998:	20030300 	call	2003030 <__divsf3>
 200099c:	1009883a 	mov	r4,r2
 20009a0:	20033c00 	call	20033c0 <__extendsfdf2>
 20009a4:	100b883a 	mov	r5,r2
 20009a8:	180d883a 	mov	r6,r3
 20009ac:	2809883a 	mov	r4,r5
 20009b0:	300b883a 	mov	r5,r6
 20009b4:	018cccf4 	movhi	r6,13107
 20009b8:	318cccc4 	addi	r6,r6,13107
 20009bc:	01d00574 	movhi	r7,16405
 20009c0:	39ccccc4 	addi	r7,r7,13107
 20009c4:	20039640 	call	2003964 <__adddf3>
 20009c8:	1009883a 	mov	r4,r2
 20009cc:	180b883a 	mov	r5,r3
 20009d0:	2005883a 	mov	r2,r4
 20009d4:	2807883a 	mov	r3,r5
 20009d8:	1009883a 	mov	r4,r2
 20009dc:	180b883a 	mov	r5,r3
 20009e0:	000d883a 	mov	r6,zero
 20009e4:	01d03134 	movhi	r7,16580
 20009e8:	39e20004 	addi	r7,r7,-30720
 20009ec:	20039d80 	call	20039d8 <__muldf3>
 20009f0:	1009883a 	mov	r4,r2
 20009f4:	180b883a 	mov	r5,r3
 20009f8:	2005883a 	mov	r2,r4
 20009fc:	2807883a 	mov	r3,r5
 2000a00:	1009883a 	mov	r4,r2
 2000a04:	180b883a 	mov	r5,r3
 2000a08:	200407c0 	call	200407c <__fixdfsi>
 2000a0c:	e0bffb15 	stw	r2,-20(fp)
	rotorOutThird = (int)((omega3/980+5.28)*10000);
 2000a10:	e13ff617 	ldw	r4,-40(fp)
 2000a14:	01511d74 	movhi	r5,17525
 2000a18:	20030300 	call	2003030 <__divsf3>
 2000a1c:	1009883a 	mov	r4,r2
 2000a20:	20033c00 	call	20033c0 <__extendsfdf2>
 2000a24:	100b883a 	mov	r5,r2
 2000a28:	180d883a 	mov	r6,r3
 2000a2c:	2809883a 	mov	r4,r5
 2000a30:	300b883a 	mov	r5,r6
 2000a34:	01947b34 	movhi	r6,20972
 2000a38:	31a147c4 	addi	r6,r6,-31457
 2000a3c:	01d00574 	movhi	r7,16405
 2000a40:	39c7ae04 	addi	r7,r7,7864
 2000a44:	20039640 	call	2003964 <__adddf3>
 2000a48:	1009883a 	mov	r4,r2
 2000a4c:	180b883a 	mov	r5,r3
 2000a50:	2005883a 	mov	r2,r4
 2000a54:	2807883a 	mov	r3,r5
 2000a58:	1009883a 	mov	r4,r2
 2000a5c:	180b883a 	mov	r5,r3
 2000a60:	000d883a 	mov	r6,zero
 2000a64:	01d03134 	movhi	r7,16580
 2000a68:	39e20004 	addi	r7,r7,-30720
 2000a6c:	20039d80 	call	20039d8 <__muldf3>
 2000a70:	1009883a 	mov	r4,r2
 2000a74:	180b883a 	mov	r5,r3
 2000a78:	2005883a 	mov	r2,r4
 2000a7c:	2807883a 	mov	r3,r5
 2000a80:	1009883a 	mov	r4,r2
 2000a84:	180b883a 	mov	r5,r3
 2000a88:	200407c0 	call	200407c <__fixdfsi>
 2000a8c:	e0bffa15 	stw	r2,-24(fp)
	rotorOutFourth = (int)((omega4/980+5.30)*10000);
 2000a90:	e13ff517 	ldw	r4,-44(fp)
 2000a94:	01511d74 	movhi	r5,17525
 2000a98:	20030300 	call	2003030 <__divsf3>
 2000a9c:	1009883a 	mov	r4,r2
 2000aa0:	20033c00 	call	20033c0 <__extendsfdf2>
 2000aa4:	100b883a 	mov	r5,r2
 2000aa8:	180d883a 	mov	r6,r3
 2000aac:	2809883a 	mov	r4,r5
 2000ab0:	300b883a 	mov	r5,r6
 2000ab4:	018cccf4 	movhi	r6,13107
 2000ab8:	318cccc4 	addi	r6,r6,13107
 2000abc:	01d00574 	movhi	r7,16405
 2000ac0:	39ccccc4 	addi	r7,r7,13107
 2000ac4:	20039640 	call	2003964 <__adddf3>
 2000ac8:	1009883a 	mov	r4,r2
 2000acc:	180b883a 	mov	r5,r3
 2000ad0:	2005883a 	mov	r2,r4
 2000ad4:	2807883a 	mov	r3,r5
 2000ad8:	1009883a 	mov	r4,r2
 2000adc:	180b883a 	mov	r5,r3
 2000ae0:	000d883a 	mov	r6,zero
 2000ae4:	01d03134 	movhi	r7,16580
 2000ae8:	39e20004 	addi	r7,r7,-30720
 2000aec:	20039d80 	call	20039d8 <__muldf3>
 2000af0:	1009883a 	mov	r4,r2
 2000af4:	180b883a 	mov	r5,r3
 2000af8:	2005883a 	mov	r2,r4
 2000afc:	2807883a 	mov	r3,r5
 2000b00:	1009883a 	mov	r4,r2
 2000b04:	180b883a 	mov	r5,r3
 2000b08:	200407c0 	call	200407c <__fixdfsi>
 2000b0c:	e0bff915 	stw	r2,-28(fp)


	printf("rotorOut: %d , %d , %d , %d \n",rotorOutFirst,rotorOutSecond,rotorOutThird,rotorOutFourth);
 2000b10:	e0bff917 	ldw	r2,-28(fp)
 2000b14:	d8800015 	stw	r2,0(sp)
 2000b18:	01008074 	movhi	r4,513
 2000b1c:	210de704 	addi	r4,r4,14236
 2000b20:	e17ffc17 	ldw	r5,-16(fp)
 2000b24:	e1bffb17 	ldw	r6,-20(fp)
 2000b28:	e1fffa17 	ldw	r7,-24(fp)
 2000b2c:	2004f440 	call	2004f44 <printf>
	rotorOutThird = -rollOut+pitchOut+yawOut+8;
	rotorOutFourth = -rollOut-pitchOut-yawOut+8;
	printf("Rotor 1 : %f\n",rotorOutFirst);*/


	if(rotorOutFirst < 60000){
 2000b30:	e0fffc17 	ldw	r3,-16(fp)
 2000b34:	00ba97d4 	movui	r2,59999
 2000b38:	10c00216 	blt	r2,r3,2000b44 <MotorControl+0x90c>
		rotorOutFirst = 60000;
 2000b3c:	00ba9814 	movui	r2,60000
 2000b40:	e0bffc15 	stw	r2,-16(fp)
	}
	if(rotorOutFirst >90000){
 2000b44:	e0fffc17 	ldw	r3,-16(fp)
 2000b48:	00800074 	movhi	r2,1
 2000b4c:	1097e404 	addi	r2,r2,24464
 2000b50:	10c0030e 	bge	r2,r3,2000b60 <MotorControl+0x928>
		rotorOutFirst = 90000;
 2000b54:	00800074 	movhi	r2,1
 2000b58:	1097e404 	addi	r2,r2,24464
 2000b5c:	e0bffc15 	stw	r2,-16(fp)
	}

	if(rotorOutSecond < 60000){
 2000b60:	e0fffb17 	ldw	r3,-20(fp)
 2000b64:	00ba97d4 	movui	r2,59999
 2000b68:	10c00216 	blt	r2,r3,2000b74 <MotorControl+0x93c>
		rotorOutSecond = 60000;
 2000b6c:	00ba9814 	movui	r2,60000
 2000b70:	e0bffb15 	stw	r2,-20(fp)
	}
	if(rotorOutSecond > 90000){
 2000b74:	e0fffb17 	ldw	r3,-20(fp)
 2000b78:	00800074 	movhi	r2,1
 2000b7c:	1097e404 	addi	r2,r2,24464
 2000b80:	10c0030e 	bge	r2,r3,2000b90 <MotorControl+0x958>
		rotorOutSecond = 90000;
 2000b84:	00800074 	movhi	r2,1
 2000b88:	1097e404 	addi	r2,r2,24464
 2000b8c:	e0bffb15 	stw	r2,-20(fp)
	}

	if(rotorOutThird < 60000){
 2000b90:	e0fffa17 	ldw	r3,-24(fp)
 2000b94:	00ba97d4 	movui	r2,59999
 2000b98:	10c00216 	blt	r2,r3,2000ba4 <MotorControl+0x96c>
		rotorOutThird = 60000;
 2000b9c:	00ba9814 	movui	r2,60000
 2000ba0:	e0bffa15 	stw	r2,-24(fp)
	}
	if(rotorOutThird > 90000){
 2000ba4:	e0fffa17 	ldw	r3,-24(fp)
 2000ba8:	00800074 	movhi	r2,1
 2000bac:	1097e404 	addi	r2,r2,24464
 2000bb0:	10c0030e 	bge	r2,r3,2000bc0 <MotorControl+0x988>
		rotorOutThird = 90000;
 2000bb4:	00800074 	movhi	r2,1
 2000bb8:	1097e404 	addi	r2,r2,24464
 2000bbc:	e0bffa15 	stw	r2,-24(fp)
	}

	if(rotorOutFourth < 60000){
 2000bc0:	e0fff917 	ldw	r3,-28(fp)
 2000bc4:	00ba97d4 	movui	r2,59999
 2000bc8:	10c00216 	blt	r2,r3,2000bd4 <MotorControl+0x99c>
		rotorOutFourth = 60000;
 2000bcc:	00ba9814 	movui	r2,60000
 2000bd0:	e0bff915 	stw	r2,-28(fp)
	}
	if(rotorOutFourth > 90000){
 2000bd4:	e0fff917 	ldw	r3,-28(fp)
 2000bd8:	00800074 	movhi	r2,1
 2000bdc:	1097e404 	addi	r2,r2,24464
 2000be0:	10c0030e 	bge	r2,r3,2000bf0 <MotorControl+0x9b8>
		rotorOutFourth = 90000;
 2000be4:	00800074 	movhi	r2,1
 2000be8:	1097e404 	addi	r2,r2,24464
 2000bec:	e0bff915 	stw	r2,-28(fp)
	}


	moto_setting(1,50,rotorOutFirst);//--
 2000bf0:	01000044 	movi	r4,1
 2000bf4:	01400c84 	movi	r5,50
 2000bf8:	e1bffc17 	ldw	r6,-16(fp)
 2000bfc:	20019380 	call	2001938 <moto_setting>
	moto_setting(2,50,rotorOutSecond); //--
 2000c00:	01000084 	movi	r4,2
 2000c04:	01400c84 	movi	r5,50
 2000c08:	e1bffb17 	ldw	r6,-20(fp)
 2000c0c:	20019380 	call	2001938 <moto_setting>
	moto_setting(3,50,rotorOutThird); //--
 2000c10:	010000c4 	movi	r4,3
 2000c14:	01400c84 	movi	r5,50
 2000c18:	e1bffa17 	ldw	r6,-24(fp)
 2000c1c:	20019380 	call	2001938 <moto_setting>
	moto_setting(4,50,rotorOutFourth);//--
 2000c20:	01000104 	movi	r4,4
 2000c24:	01400c84 	movi	r5,50
 2000c28:	e1bff917 	ldw	r6,-28(fp)
 2000c2c:	20019380 	call	2001938 <moto_setting>

}
 2000c30:	e037883a 	mov	sp,fp
 2000c34:	dfc00317 	ldw	ra,12(sp)
 2000c38:	df000217 	ldw	fp,8(sp)
 2000c3c:	dc400117 	ldw	r17,4(sp)
 2000c40:	dc000017 	ldw	r16,0(sp)
 2000c44:	dec00404 	addi	sp,sp,16
 2000c48:	f800283a 	ret

02000c4c <PIDInit>:
#include "controller.h"

extern float g_preLength;
extern unsigned char g_protectFlag;

void PIDInit(){
 2000c4c:	deffff04 	addi	sp,sp,-4
 2000c50:	df000015 	stw	fp,0(sp)
 2000c54:	d839883a 	mov	fp,sp
	rollPID.kp = 80;
 2000c58:	00c08074 	movhi	r3,513
 2000c5c:	18d68804 	addi	r3,r3,23072
 2000c60:	0090a834 	movhi	r2,17056
 2000c64:	18800015 	stw	r2,0(r3)
	rollPID.ki = 0;
 2000c68:	00808074 	movhi	r2,513
 2000c6c:	10968804 	addi	r2,r2,23072
 2000c70:	10000115 	stw	zero,4(r2)
	rollPID.kd = 450;
 2000c74:	00c08074 	movhi	r3,513
 2000c78:	18d68804 	addi	r3,r3,23072
 2000c7c:	0090f874 	movhi	r2,17377
 2000c80:	18800215 	stw	r2,8(r3)
	pitchPID.kp = 80;
 2000c84:	00c08074 	movhi	r3,513
 2000c88:	18d68e04 	addi	r3,r3,23096
 2000c8c:	0090a834 	movhi	r2,17056
 2000c90:	18800015 	stw	r2,0(r3)
	pitchPID.ki = 0;
 2000c94:	00808074 	movhi	r2,513
 2000c98:	10968e04 	addi	r2,r2,23096
 2000c9c:	10000115 	stw	zero,4(r2)
	pitchPID.kd = 450;
 2000ca0:	00c08074 	movhi	r3,513
 2000ca4:	18d68e04 	addi	r3,r3,23096
 2000ca8:	0090f874 	movhi	r2,17377
 2000cac:	18800215 	stw	r2,8(r3)
	yawPID.kp = 1;
 2000cb0:	00c08074 	movhi	r3,513
 2000cb4:	18d68504 	addi	r3,r3,23060
 2000cb8:	008fe034 	movhi	r2,16256
 2000cbc:	18800015 	stw	r2,0(r3)
	yawPID.ki = 0;
 2000cc0:	00808074 	movhi	r2,513
 2000cc4:	10968504 	addi	r2,r2,23060
 2000cc8:	10000115 	stw	zero,4(r2)
	yawPID.kd = 0;
 2000ccc:	00808074 	movhi	r2,513
 2000cd0:	10968504 	addi	r2,r2,23060
 2000cd4:	10000215 	stw	zero,8(r2)
	heightPID.kp = 0.05;
 2000cd8:	00c08074 	movhi	r3,513
 2000cdc:	18d68b04 	addi	r3,r3,23084
 2000ce0:	008f5374 	movhi	r2,15693
 2000ce4:	10b33344 	addi	r2,r2,-13107
 2000ce8:	18800015 	stw	r2,0(r3)
	heightPID.ki = 0;
 2000cec:	00808074 	movhi	r2,513
 2000cf0:	10968b04 	addi	r2,r2,23084
 2000cf4:	10000115 	stw	zero,4(r2)
	heightPID.kd = 0;
 2000cf8:	00808074 	movhi	r2,513
 2000cfc:	10968b04 	addi	r2,r2,23084
 2000d00:	10000215 	stw	zero,8(r2)
}
 2000d04:	e037883a 	mov	sp,fp
 2000d08:	df000017 	ldw	fp,0(sp)
 2000d0c:	dec00104 	addi	sp,sp,4
 2000d10:	f800283a 	ret

02000d14 <RollCalc>:


float RollCalc(float setRoll){
 2000d14:	defff804 	addi	sp,sp,-32
 2000d18:	dfc00715 	stw	ra,28(sp)
 2000d1c:	df000615 	stw	fp,24(sp)
 2000d20:	dc400515 	stw	r17,20(sp)
 2000d24:	dc000415 	stw	r16,16(sp)
 2000d28:	df000404 	addi	fp,sp,16
 2000d2c:	e13fff15 	stw	r4,-4(fp)
	static float s_lastErr = 0;
	static float s_integral =0;
	float current;
	float err,output;
	current = read_JY901(Roll);
 2000d30:	01000f44 	movi	r4,61
 2000d34:	20017080 	call	2001708 <read_JY901>
 2000d38:	e0bffe15 	stw	r2,-8(fp)
	err = setRoll + standardAngle.roll - current;
 2000d3c:	00808074 	movhi	r2,513
 2000d40:	10968204 	addi	r2,r2,23048
 2000d44:	10800017 	ldw	r2,0(r2)
 2000d48:	1009883a 	mov	r4,r2
 2000d4c:	e17fff17 	ldw	r5,-4(fp)
 2000d50:	2002dec0 	call	2002dec <__addsf3>
 2000d54:	1009883a 	mov	r4,r2
 2000d58:	e17ffe17 	ldw	r5,-8(fp)
 2000d5c:	2002d7c0 	call	2002d7c <__subsf3>
 2000d60:	e0bffd15 	stw	r2,-12(fp)

	if(err > 180){
 2000d64:	e13ffd17 	ldw	r4,-12(fp)
 2000d68:	0150cd34 	movhi	r5,17204
 2000d6c:	20031a40 	call	20031a4 <__gtsf2>
 2000d70:	10800048 	cmpgei	r2,r2,1
 2000d74:	1000011e 	bne	r2,zero,2000d7c <RollCalc+0x68>
 2000d78:	00000406 	br	2000d8c <RollCalc+0x78>
		err = err - 360;
 2000d7c:	e13ffd17 	ldw	r4,-12(fp)
 2000d80:	0150ed34 	movhi	r5,17332
 2000d84:	2002d7c0 	call	2002d7c <__subsf3>
 2000d88:	e0bffd15 	stw	r2,-12(fp)
	}
	if(err < -180){
 2000d8c:	e13ffd17 	ldw	r4,-12(fp)
 2000d90:	0170cd34 	movhi	r5,49972
 2000d94:	200321c0 	call	200321c <__ltsf2>
 2000d98:	1004803a 	cmplt	r2,r2,zero
 2000d9c:	1000011e 	bne	r2,zero,2000da4 <RollCalc+0x90>
 2000da0:	00000406 	br	2000db4 <RollCalc+0xa0>
		err = err + 360;
 2000da4:	e13ffd17 	ldw	r4,-12(fp)
 2000da8:	0150ed34 	movhi	r5,17332
 2000dac:	2002dec0 	call	2002dec <__addsf3>
 2000db0:	e0bffd15 	stw	r2,-12(fp)
	}

	printf("roll: %f\n",err);
 2000db4:	e13ffd17 	ldw	r4,-12(fp)
 2000db8:	20033c00 	call	20033c0 <__extendsfdf2>
 2000dbc:	100d883a 	mov	r6,r2
 2000dc0:	180f883a 	mov	r7,r3
 2000dc4:	01008074 	movhi	r4,513
 2000dc8:	210def04 	addi	r4,r4,14268
 2000dcc:	300b883a 	mov	r5,r6
 2000dd0:	380d883a 	mov	r6,r7
 2000dd4:	2004f440 	call	2004f44 <printf>

	if(err > MAX_ANGLE){
 2000dd8:	e13ffd17 	ldw	r4,-12(fp)
 2000ddc:	01508334 	movhi	r5,16908
 2000de0:	20031a40 	call	20031a4 <__gtsf2>
 2000de4:	10800048 	cmpgei	r2,r2,1
 2000de8:	1000011e 	bne	r2,zero,2000df0 <RollCalc+0xdc>
 2000dec:	00000306 	br	2000dfc <RollCalc+0xe8>
		g_protectFlag = 0;
 2000df0:	00808074 	movhi	r2,513
 2000df4:	10964744 	addi	r2,r2,22813
 2000df8:	10000005 	stb	zero,0(r2)
	}
	if(err < -MAX_ANGLE){
 2000dfc:	e13ffd17 	ldw	r4,-12(fp)
 2000e00:	01708334 	movhi	r5,49676
 2000e04:	200321c0 	call	200321c <__ltsf2>
 2000e08:	1004803a 	cmplt	r2,r2,zero
 2000e0c:	1000011e 	bne	r2,zero,2000e14 <RollCalc+0x100>
 2000e10:	00000306 	br	2000e20 <RollCalc+0x10c>
		g_protectFlag = 0;
 2000e14:	00808074 	movhi	r2,513
 2000e18:	10964744 	addi	r2,r2,22813
 2000e1c:	10000005 	stb	zero,0(r2)
	}
	s_integral = s_integral + err;
 2000e20:	d0a01517 	ldw	r2,-32684(gp)
 2000e24:	1009883a 	mov	r4,r2
 2000e28:	e17ffd17 	ldw	r5,-12(fp)
 2000e2c:	2002dec0 	call	2002dec <__addsf3>
 2000e30:	d0a01515 	stw	r2,-32684(gp)
	output = rollPID.kp * err + rollPID.ki * s_integral + rollPID.kd * (err - s_lastErr);
 2000e34:	00808074 	movhi	r2,513
 2000e38:	10968804 	addi	r2,r2,23072
 2000e3c:	10800017 	ldw	r2,0(r2)
 2000e40:	1009883a 	mov	r4,r2
 2000e44:	e17ffd17 	ldw	r5,-12(fp)
 2000e48:	2002e500 	call	2002e50 <__mulsf3>
 2000e4c:	1021883a 	mov	r16,r2
 2000e50:	00808074 	movhi	r2,513
 2000e54:	10968804 	addi	r2,r2,23072
 2000e58:	10800117 	ldw	r2,4(r2)
 2000e5c:	d0e01517 	ldw	r3,-32684(gp)
 2000e60:	1009883a 	mov	r4,r2
 2000e64:	180b883a 	mov	r5,r3
 2000e68:	2002e500 	call	2002e50 <__mulsf3>
 2000e6c:	8009883a 	mov	r4,r16
 2000e70:	100b883a 	mov	r5,r2
 2000e74:	2002dec0 	call	2002dec <__addsf3>
 2000e78:	1023883a 	mov	r17,r2
 2000e7c:	00808074 	movhi	r2,513
 2000e80:	10968804 	addi	r2,r2,23072
 2000e84:	14000217 	ldw	r16,8(r2)
 2000e88:	d0a01617 	ldw	r2,-32680(gp)
 2000e8c:	e13ffd17 	ldw	r4,-12(fp)
 2000e90:	100b883a 	mov	r5,r2
 2000e94:	2002d7c0 	call	2002d7c <__subsf3>
 2000e98:	8009883a 	mov	r4,r16
 2000e9c:	100b883a 	mov	r5,r2
 2000ea0:	2002e500 	call	2002e50 <__mulsf3>
 2000ea4:	8809883a 	mov	r4,r17
 2000ea8:	100b883a 	mov	r5,r2
 2000eac:	2002dec0 	call	2002dec <__addsf3>
 2000eb0:	e0bffc15 	stw	r2,-16(fp)
	s_lastErr = err;
 2000eb4:	e0bffd17 	ldw	r2,-12(fp)
 2000eb8:	d0a01615 	stw	r2,-32680(gp)
	return (output);
 2000ebc:	e0bffc17 	ldw	r2,-16(fp)

}
 2000ec0:	e037883a 	mov	sp,fp
 2000ec4:	dfc00317 	ldw	ra,12(sp)
 2000ec8:	df000217 	ldw	fp,8(sp)
 2000ecc:	dc400117 	ldw	r17,4(sp)
 2000ed0:	dc000017 	ldw	r16,0(sp)
 2000ed4:	dec00404 	addi	sp,sp,16
 2000ed8:	f800283a 	ret

02000edc <PitchCalc>:

float PitchCalc(float setPitch){
 2000edc:	defff804 	addi	sp,sp,-32
 2000ee0:	dfc00715 	stw	ra,28(sp)
 2000ee4:	df000615 	stw	fp,24(sp)
 2000ee8:	dc400515 	stw	r17,20(sp)
 2000eec:	dc000415 	stw	r16,16(sp)
 2000ef0:	df000404 	addi	fp,sp,16
 2000ef4:	e13fff15 	stw	r4,-4(fp)
	static float s_lastErr = 0;
	static float s_integral =0;
	float current;
	float err,output;
	current = read_JY901(Pitch);
 2000ef8:	01000f84 	movi	r4,62
 2000efc:	20017080 	call	2001708 <read_JY901>
 2000f00:	e0bffe15 	stw	r2,-8(fp)
	err = setPitch + standardAngle.pitch - current;
 2000f04:	00808074 	movhi	r2,513
 2000f08:	10968204 	addi	r2,r2,23048
 2000f0c:	10800117 	ldw	r2,4(r2)
 2000f10:	1009883a 	mov	r4,r2
 2000f14:	e17fff17 	ldw	r5,-4(fp)
 2000f18:	2002dec0 	call	2002dec <__addsf3>
 2000f1c:	1009883a 	mov	r4,r2
 2000f20:	e17ffe17 	ldw	r5,-8(fp)
 2000f24:	2002d7c0 	call	2002d7c <__subsf3>
 2000f28:	e0bffd15 	stw	r2,-12(fp)

	if(err > 180){
 2000f2c:	e13ffd17 	ldw	r4,-12(fp)
 2000f30:	0150cd34 	movhi	r5,17204
 2000f34:	20031a40 	call	20031a4 <__gtsf2>
 2000f38:	10800048 	cmpgei	r2,r2,1
 2000f3c:	1000011e 	bne	r2,zero,2000f44 <PitchCalc+0x68>
 2000f40:	00000406 	br	2000f54 <PitchCalc+0x78>
		err = err - 360;
 2000f44:	e13ffd17 	ldw	r4,-12(fp)
 2000f48:	0150ed34 	movhi	r5,17332
 2000f4c:	2002d7c0 	call	2002d7c <__subsf3>
 2000f50:	e0bffd15 	stw	r2,-12(fp)
	}
	if(err < -180){
 2000f54:	e13ffd17 	ldw	r4,-12(fp)
 2000f58:	0170cd34 	movhi	r5,49972
 2000f5c:	200321c0 	call	200321c <__ltsf2>
 2000f60:	1004803a 	cmplt	r2,r2,zero
 2000f64:	1000011e 	bne	r2,zero,2000f6c <PitchCalc+0x90>
 2000f68:	00000406 	br	2000f7c <PitchCalc+0xa0>
		err = err + 360;
 2000f6c:	e13ffd17 	ldw	r4,-12(fp)
 2000f70:	0150ed34 	movhi	r5,17332
 2000f74:	2002dec0 	call	2002dec <__addsf3>
 2000f78:	e0bffd15 	stw	r2,-12(fp)
	}

	printf("pitch: %f\n",err);
 2000f7c:	e13ffd17 	ldw	r4,-12(fp)
 2000f80:	20033c00 	call	20033c0 <__extendsfdf2>
 2000f84:	100d883a 	mov	r6,r2
 2000f88:	180f883a 	mov	r7,r3
 2000f8c:	01008074 	movhi	r4,513
 2000f90:	210df204 	addi	r4,r4,14280
 2000f94:	300b883a 	mov	r5,r6
 2000f98:	380d883a 	mov	r6,r7
 2000f9c:	2004f440 	call	2004f44 <printf>

	if(err > MAX_ANGLE){
 2000fa0:	e13ffd17 	ldw	r4,-12(fp)
 2000fa4:	01508334 	movhi	r5,16908
 2000fa8:	20031a40 	call	20031a4 <__gtsf2>
 2000fac:	10800048 	cmpgei	r2,r2,1
 2000fb0:	1000011e 	bne	r2,zero,2000fb8 <PitchCalc+0xdc>
 2000fb4:	00000306 	br	2000fc4 <PitchCalc+0xe8>
		g_protectFlag = 0;
 2000fb8:	00808074 	movhi	r2,513
 2000fbc:	10964744 	addi	r2,r2,22813
 2000fc0:	10000005 	stb	zero,0(r2)
	}
	if(err < -MAX_ANGLE){
 2000fc4:	e13ffd17 	ldw	r4,-12(fp)
 2000fc8:	01708334 	movhi	r5,49676
 2000fcc:	200321c0 	call	200321c <__ltsf2>
 2000fd0:	1004803a 	cmplt	r2,r2,zero
 2000fd4:	1000011e 	bne	r2,zero,2000fdc <PitchCalc+0x100>
 2000fd8:	00000306 	br	2000fe8 <PitchCalc+0x10c>
		g_protectFlag = 0;
 2000fdc:	00808074 	movhi	r2,513
 2000fe0:	10964744 	addi	r2,r2,22813
 2000fe4:	10000005 	stb	zero,0(r2)
	}
	s_integral = s_integral + err;
 2000fe8:	d0a01717 	ldw	r2,-32676(gp)
 2000fec:	1009883a 	mov	r4,r2
 2000ff0:	e17ffd17 	ldw	r5,-12(fp)
 2000ff4:	2002dec0 	call	2002dec <__addsf3>
 2000ff8:	d0a01715 	stw	r2,-32676(gp)
	output = pitchPID.kp * err + pitchPID.ki * s_integral + yawPID.kd * (err - s_lastErr);
 2000ffc:	00808074 	movhi	r2,513
 2001000:	10968e04 	addi	r2,r2,23096
 2001004:	10800017 	ldw	r2,0(r2)
 2001008:	1009883a 	mov	r4,r2
 200100c:	e17ffd17 	ldw	r5,-12(fp)
 2001010:	2002e500 	call	2002e50 <__mulsf3>
 2001014:	1021883a 	mov	r16,r2
 2001018:	00808074 	movhi	r2,513
 200101c:	10968e04 	addi	r2,r2,23096
 2001020:	10800117 	ldw	r2,4(r2)
 2001024:	d0e01717 	ldw	r3,-32676(gp)
 2001028:	1009883a 	mov	r4,r2
 200102c:	180b883a 	mov	r5,r3
 2001030:	2002e500 	call	2002e50 <__mulsf3>
 2001034:	8009883a 	mov	r4,r16
 2001038:	100b883a 	mov	r5,r2
 200103c:	2002dec0 	call	2002dec <__addsf3>
 2001040:	1023883a 	mov	r17,r2
 2001044:	00808074 	movhi	r2,513
 2001048:	10968504 	addi	r2,r2,23060
 200104c:	14000217 	ldw	r16,8(r2)
 2001050:	d0a01817 	ldw	r2,-32672(gp)
 2001054:	e13ffd17 	ldw	r4,-12(fp)
 2001058:	100b883a 	mov	r5,r2
 200105c:	2002d7c0 	call	2002d7c <__subsf3>
 2001060:	8009883a 	mov	r4,r16
 2001064:	100b883a 	mov	r5,r2
 2001068:	2002e500 	call	2002e50 <__mulsf3>
 200106c:	8809883a 	mov	r4,r17
 2001070:	100b883a 	mov	r5,r2
 2001074:	2002dec0 	call	2002dec <__addsf3>
 2001078:	e0bffc15 	stw	r2,-16(fp)
	s_lastErr = err;
 200107c:	e0bffd17 	ldw	r2,-12(fp)
 2001080:	d0a01815 	stw	r2,-32672(gp)
	return (output);
 2001084:	e0bffc17 	ldw	r2,-16(fp)

}
 2001088:	e037883a 	mov	sp,fp
 200108c:	dfc00317 	ldw	ra,12(sp)
 2001090:	df000217 	ldw	fp,8(sp)
 2001094:	dc400117 	ldw	r17,4(sp)
 2001098:	dc000017 	ldw	r16,0(sp)
 200109c:	dec00404 	addi	sp,sp,16
 20010a0:	f800283a 	ret

020010a4 <YawCalc>:

float YawCalc(float setYaw){
 20010a4:	defff804 	addi	sp,sp,-32
 20010a8:	dfc00715 	stw	ra,28(sp)
 20010ac:	df000615 	stw	fp,24(sp)
 20010b0:	dc400515 	stw	r17,20(sp)
 20010b4:	dc000415 	stw	r16,16(sp)
 20010b8:	df000404 	addi	fp,sp,16
 20010bc:	e13fff15 	stw	r4,-4(fp)
	static float s_lastErr = 0;
	static float s_integral =0;
	float current;
	float err,output;
	current = read_JY901(Yaw);
 20010c0:	01000fc4 	movi	r4,63
 20010c4:	20017080 	call	2001708 <read_JY901>
 20010c8:	e0bffe15 	stw	r2,-8(fp)
	err = setYaw + standardAngle.yaw - current;
 20010cc:	00808074 	movhi	r2,513
 20010d0:	10968204 	addi	r2,r2,23048
 20010d4:	10800217 	ldw	r2,8(r2)
 20010d8:	1009883a 	mov	r4,r2
 20010dc:	e17fff17 	ldw	r5,-4(fp)
 20010e0:	2002dec0 	call	2002dec <__addsf3>
 20010e4:	1009883a 	mov	r4,r2
 20010e8:	e17ffe17 	ldw	r5,-8(fp)
 20010ec:	2002d7c0 	call	2002d7c <__subsf3>
 20010f0:	e0bffd15 	stw	r2,-12(fp)
	//printf("yaw err %f\n",err);
	if(err > 180){
 20010f4:	e13ffd17 	ldw	r4,-12(fp)
 20010f8:	0150cd34 	movhi	r5,17204
 20010fc:	20031a40 	call	20031a4 <__gtsf2>
 2001100:	10800048 	cmpgei	r2,r2,1
 2001104:	1000011e 	bne	r2,zero,200110c <YawCalc+0x68>
 2001108:	00000406 	br	200111c <YawCalc+0x78>
		err = err - 360;
 200110c:	e13ffd17 	ldw	r4,-12(fp)
 2001110:	0150ed34 	movhi	r5,17332
 2001114:	2002d7c0 	call	2002d7c <__subsf3>
 2001118:	e0bffd15 	stw	r2,-12(fp)
	}
	if(err < -180){
 200111c:	e13ffd17 	ldw	r4,-12(fp)
 2001120:	0170cd34 	movhi	r5,49972
 2001124:	200321c0 	call	200321c <__ltsf2>
 2001128:	1004803a 	cmplt	r2,r2,zero
 200112c:	1000011e 	bne	r2,zero,2001134 <YawCalc+0x90>
 2001130:	00000406 	br	2001144 <YawCalc+0xa0>
		err = err + 360;
 2001134:	e13ffd17 	ldw	r4,-12(fp)
 2001138:	0150ed34 	movhi	r5,17332
 200113c:	2002dec0 	call	2002dec <__addsf3>
 2001140:	e0bffd15 	stw	r2,-12(fp)
	}
	s_integral = s_integral + err;
 2001144:	d0a01917 	ldw	r2,-32668(gp)
 2001148:	1009883a 	mov	r4,r2
 200114c:	e17ffd17 	ldw	r5,-12(fp)
 2001150:	2002dec0 	call	2002dec <__addsf3>
 2001154:	d0a01915 	stw	r2,-32668(gp)
	output = yawPID.kp * err + yawPID.ki * s_integral + yawPID.kd * (err - s_lastErr);
 2001158:	00808074 	movhi	r2,513
 200115c:	10968504 	addi	r2,r2,23060
 2001160:	10800017 	ldw	r2,0(r2)
 2001164:	1009883a 	mov	r4,r2
 2001168:	e17ffd17 	ldw	r5,-12(fp)
 200116c:	2002e500 	call	2002e50 <__mulsf3>
 2001170:	1021883a 	mov	r16,r2
 2001174:	00808074 	movhi	r2,513
 2001178:	10968504 	addi	r2,r2,23060
 200117c:	10800117 	ldw	r2,4(r2)
 2001180:	d0e01917 	ldw	r3,-32668(gp)
 2001184:	1009883a 	mov	r4,r2
 2001188:	180b883a 	mov	r5,r3
 200118c:	2002e500 	call	2002e50 <__mulsf3>
 2001190:	8009883a 	mov	r4,r16
 2001194:	100b883a 	mov	r5,r2
 2001198:	2002dec0 	call	2002dec <__addsf3>
 200119c:	1023883a 	mov	r17,r2
 20011a0:	00808074 	movhi	r2,513
 20011a4:	10968504 	addi	r2,r2,23060
 20011a8:	14000217 	ldw	r16,8(r2)
 20011ac:	d0a01a17 	ldw	r2,-32664(gp)
 20011b0:	e13ffd17 	ldw	r4,-12(fp)
 20011b4:	100b883a 	mov	r5,r2
 20011b8:	2002d7c0 	call	2002d7c <__subsf3>
 20011bc:	8009883a 	mov	r4,r16
 20011c0:	100b883a 	mov	r5,r2
 20011c4:	2002e500 	call	2002e50 <__mulsf3>
 20011c8:	8809883a 	mov	r4,r17
 20011cc:	100b883a 	mov	r5,r2
 20011d0:	2002dec0 	call	2002dec <__addsf3>
 20011d4:	e0bffc15 	stw	r2,-16(fp)
	s_lastErr = err;
 20011d8:	e0bffd17 	ldw	r2,-12(fp)
 20011dc:	d0a01a15 	stw	r2,-32664(gp)
	return (output);
 20011e0:	e0bffc17 	ldw	r2,-16(fp)

}
 20011e4:	e037883a 	mov	sp,fp
 20011e8:	dfc00317 	ldw	ra,12(sp)
 20011ec:	df000217 	ldw	fp,8(sp)
 20011f0:	dc400117 	ldw	r17,4(sp)
 20011f4:	dc000017 	ldw	r16,0(sp)
 20011f8:	dec00404 	addi	sp,sp,16
 20011fc:	f800283a 	ret

02001200 <HeightCalc>:

float HeightCalc(float setHeight){
 2001200:	defff904 	addi	sp,sp,-28
 2001204:	dfc00615 	stw	ra,24(sp)
 2001208:	df000515 	stw	fp,20(sp)
 200120c:	dc400415 	stw	r17,16(sp)
 2001210:	dc000315 	stw	r16,12(sp)
 2001214:	df000304 	addi	fp,sp,12
 2001218:	e13fff15 	stw	r4,-4(fp)
	static float s_lastErr = 0;
	static float s_integral =0;
	float err,output;

	g_preLength = g_preLength/1000;
 200121c:	00808074 	movhi	r2,513
 2001220:	10966704 	addi	r2,r2,22940
 2001224:	10800017 	ldw	r2,0(r2)
 2001228:	1009883a 	mov	r4,r2
 200122c:	01511eb4 	movhi	r5,17530
 2001230:	20030300 	call	2003030 <__divsf3>
 2001234:	1007883a 	mov	r3,r2
 2001238:	00808074 	movhi	r2,513
 200123c:	10966704 	addi	r2,r2,22940
 2001240:	10c00015 	stw	r3,0(r2)
	err = setHeight - g_preLength;
 2001244:	00808074 	movhi	r2,513
 2001248:	10966704 	addi	r2,r2,22940
 200124c:	10800017 	ldw	r2,0(r2)
 2001250:	e13fff17 	ldw	r4,-4(fp)
 2001254:	100b883a 	mov	r5,r2
 2001258:	2002d7c0 	call	2002d7c <__subsf3>
 200125c:	e0bffe15 	stw	r2,-8(fp)
	s_integral = s_integral + err;
 2001260:	d0a01b17 	ldw	r2,-32660(gp)
 2001264:	1009883a 	mov	r4,r2
 2001268:	e17ffe17 	ldw	r5,-8(fp)
 200126c:	2002dec0 	call	2002dec <__addsf3>
 2001270:	d0a01b15 	stw	r2,-32660(gp)
	output = heightPID.kp * err + heightPID.ki * s_integral + heightPID.kd * (err - s_lastErr);
 2001274:	00808074 	movhi	r2,513
 2001278:	10968b04 	addi	r2,r2,23084
 200127c:	10800017 	ldw	r2,0(r2)
 2001280:	1009883a 	mov	r4,r2
 2001284:	e17ffe17 	ldw	r5,-8(fp)
 2001288:	2002e500 	call	2002e50 <__mulsf3>
 200128c:	1021883a 	mov	r16,r2
 2001290:	00808074 	movhi	r2,513
 2001294:	10968b04 	addi	r2,r2,23084
 2001298:	10800117 	ldw	r2,4(r2)
 200129c:	d0e01b17 	ldw	r3,-32660(gp)
 20012a0:	1009883a 	mov	r4,r2
 20012a4:	180b883a 	mov	r5,r3
 20012a8:	2002e500 	call	2002e50 <__mulsf3>
 20012ac:	8009883a 	mov	r4,r16
 20012b0:	100b883a 	mov	r5,r2
 20012b4:	2002dec0 	call	2002dec <__addsf3>
 20012b8:	1023883a 	mov	r17,r2
 20012bc:	00808074 	movhi	r2,513
 20012c0:	10968b04 	addi	r2,r2,23084
 20012c4:	14000217 	ldw	r16,8(r2)
 20012c8:	d0a01c17 	ldw	r2,-32656(gp)
 20012cc:	e13ffe17 	ldw	r4,-8(fp)
 20012d0:	100b883a 	mov	r5,r2
 20012d4:	2002d7c0 	call	2002d7c <__subsf3>
 20012d8:	8009883a 	mov	r4,r16
 20012dc:	100b883a 	mov	r5,r2
 20012e0:	2002e500 	call	2002e50 <__mulsf3>
 20012e4:	8809883a 	mov	r4,r17
 20012e8:	100b883a 	mov	r5,r2
 20012ec:	2002dec0 	call	2002dec <__addsf3>
 20012f0:	e0bffd15 	stw	r2,-12(fp)
	s_lastErr = err;
 20012f4:	e0bffe17 	ldw	r2,-8(fp)
 20012f8:	d0a01c15 	stw	r2,-32656(gp)
	return (output);
 20012fc:	e0bffd17 	ldw	r2,-12(fp)
}
 2001300:	e037883a 	mov	sp,fp
 2001304:	dfc00317 	ldw	ra,12(sp)
 2001308:	df000217 	ldw	fp,8(sp)
 200130c:	dc400117 	ldw	r17,4(sp)
 2001310:	dc000017 	ldw	r16,0(sp)
 2001314:	dec00404 	addi	sp,sp,16
 2001318:	f800283a 	ret

0200131c <Read_FBM320>:
	  none
*****************************************************************/


alt_u32 Read_FBM320()
{
 200131c:	defffc04 	addi	sp,sp,-16
 2001320:	dfc00315 	stw	ra,12(sp)
 2001324:	df000215 	stw	fp,8(sp)
 2001328:	df000204 	addi	fp,sp,8
	alt_u32 FBM320_h=0;
 200132c:	e03ffe15 	stw	zero,-8(fp)
	alt_u8 H_data[3]={0};
 2001330:	e03fff0d 	sth	zero,-4(fp)
 2001334:	e03fff85 	stb	zero,-2(fp)
	I2C_start(OPENCORES_I2C_FBM320_BASE,0x60,0);/* 0x60 device address */
 2001338:	01001804 	movi	r4,96
 200133c:	01401804 	movi	r5,96
 2001340:	000d883a 	mov	r6,zero
 2001344:	20014cc0 	call	20014cc <I2C_start>
	I2C_write(OPENCORES_I2C_FBM320_BASE,0x33,0);/* 0x33 registers address */
 2001348:	01001804 	movi	r4,96
 200134c:	01400cc4 	movi	r5,51
 2001350:	000d883a 	mov	r6,zero
 2001354:	20015f80 	call	20015f8 <I2C_write>
	I2C_start(OPENCORES_I2C_FBM320_BASE,0x60,1);
 2001358:	01001804 	movi	r4,96
 200135c:	01401804 	movi	r5,96
 2001360:	01800044 	movi	r6,1
 2001364:	20014cc0 	call	20014cc <I2C_start>
	H_data[0]=I2C_read(OPENCORES_I2C_FBM320_BASE,0);
 2001368:	01001804 	movi	r4,96
 200136c:	000b883a 	mov	r5,zero
 2001370:	20015780 	call	2001578 <I2C_read>
 2001374:	e0bfff05 	stb	r2,-4(fp)
	H_data[1]=I2C_read(OPENCORES_I2C_FBM320_BASE,0);
 2001378:	01001804 	movi	r4,96
 200137c:	000b883a 	mov	r5,zero
 2001380:	20015780 	call	2001578 <I2C_read>
 2001384:	e0bfff45 	stb	r2,-3(fp)
	H_data[2]=I2C_read(OPENCORES_I2C_FBM320_BASE,1);
 2001388:	01001804 	movi	r4,96
 200138c:	01400044 	movi	r5,1
 2001390:	20015780 	call	2001578 <I2C_read>
 2001394:	e0bfff85 	stb	r2,-2(fp)
	FBM320_h=(( alt_u32 )H_data[0]<<16)|((alt_u16)H_data[1]<<8)|H_data[2];
 2001398:	e0bfff03 	ldbu	r2,-4(fp)
 200139c:	10803fcc 	andi	r2,r2,255
 20013a0:	1006943a 	slli	r3,r2,16
 20013a4:	e0bfff43 	ldbu	r2,-3(fp)
 20013a8:	10803fcc 	andi	r2,r2,255
 20013ac:	1004923a 	slli	r2,r2,8
 20013b0:	1886b03a 	or	r3,r3,r2
 20013b4:	e0bfff83 	ldbu	r2,-2(fp)
 20013b8:	10803fcc 	andi	r2,r2,255
 20013bc:	1884b03a 	or	r2,r3,r2
 20013c0:	e0bffe15 	stw	r2,-8(fp)
	return (FBM320_h);
 20013c4:	e0bffe17 	ldw	r2,-8(fp)

}
 20013c8:	e037883a 	mov	sp,fp
 20013cc:	dfc00117 	ldw	ra,4(sp)
 20013d0:	df000017 	ldw	fp,0(sp)
 20013d4:	dec00204 	addi	sp,sp,8
 20013d8:	f800283a 	ret

020013dc <fbm320Init>:



void fbm320Init(){
 20013dc:	defffe04 	addi	sp,sp,-8
 20013e0:	dfc00115 	stw	ra,4(sp)
 20013e4:	df000015 	stw	fp,0(sp)
 20013e8:	d839883a 	mov	fp,sp
	I2C_init(OPENCORES_I2C_FBM320_BASE,ALT_CPU_FREQ,100000);
 20013ec:	01001804 	movi	r4,96
 20013f0:	0140bef4 	movhi	r5,763
 20013f4:	297c2004 	addi	r5,r5,-3968
 20013f8:	018000b4 	movhi	r6,2
 20013fc:	31a1a804 	addi	r6,r6,-31072
 2001400:	20014200 	call	2001420 <I2C_init>
	fbm320Standard = Read_FBM320();
 2001404:	200131c0 	call	200131c <Read_FBM320>
 2001408:	d0a01d0d 	sth	r2,-32652(gp)
}
 200140c:	e037883a 	mov	sp,fp
 2001410:	dfc00117 	ldw	ra,4(sp)
 2001414:	df000017 	ldw	fp,0(sp)
 2001418:	dec00204 	addi	sp,sp,8
 200141c:	f800283a 	ret

02001420 <I2C_init>:
      clk = freuqency of the clock driving this component  ( in Hz)
      speed = SCL speed ie 100K, 400K ...            (in Hz)
15-OCT-07 initial release
*****************************************************************/
void I2C_init(alt_u32 base,alt_u32 clk,alt_u32 speed)
{
 2001420:	defffa04 	addi	sp,sp,-24
 2001424:	dfc00515 	stw	ra,20(sp)
 2001428:	df000415 	stw	fp,16(sp)
 200142c:	df000404 	addi	fp,sp,16
 2001430:	e13ffd15 	stw	r4,-12(fp)
 2001434:	e17ffe15 	stw	r5,-8(fp)
 2001438:	e1bfff15 	stw	r6,-4(fp)
  alt_u32 prescale = (clk/( 5 * speed))-1;
 200143c:	e0bfff17 	ldw	r2,-4(fp)
 2001440:	11400164 	muli	r5,r2,5
 2001444:	e13ffe17 	ldw	r4,-8(fp)
 2001448:	20044d00 	call	20044d0 <__udivsi3>
 200144c:	10bfffc4 	addi	r2,r2,-1
 2001450:	e0bffc15 	stw	r2,-16(fp)
#ifdef  I2C_DEBUG
        printf(" Initializing  I2C at 0x%x, \n\twith clock speed 0x%x \n\tand SCL speed 0x%x \n\tand prescale 0x%x\n",base,clk,speed,prescale);
#endif
  IOWR_I2C_OPENCORES_CTR(base, 0x00); /* turn off the core*/
 2001454:	e0bffd17 	ldw	r2,-12(fp)
 2001458:	10800204 	addi	r2,r2,8
 200145c:	10000035 	stwio	zero,0(r2)

  IOWR_I2C_OPENCORES_CR(base, I2C_OPENCORES_CR_IACK_MSK); /* clearn any pening IRQ*/
 2001460:	e0bffd17 	ldw	r2,-12(fp)
 2001464:	10800404 	addi	r2,r2,16
 2001468:	1007883a 	mov	r3,r2
 200146c:	00800044 	movi	r2,1
 2001470:	18800035 	stwio	r2,0(r3)

  IOWR_I2C_OPENCORES_PRERLO(base, (0xff & prescale));  /* load low presacle bit*/
 2001474:	e13ffd17 	ldw	r4,-12(fp)
 2001478:	e0bffc17 	ldw	r2,-16(fp)
 200147c:	10c03fcc 	andi	r3,r2,255
 2001480:	2005883a 	mov	r2,r4
 2001484:	10c00035 	stwio	r3,0(r2)

  IOWR_I2C_OPENCORES_PRERHI(base, (0xff & (prescale>>8)));  /* load upper prescale bit */
 2001488:	e0bffd17 	ldw	r2,-12(fp)
 200148c:	11000104 	addi	r4,r2,4
 2001490:	e0bffc17 	ldw	r2,-16(fp)
 2001494:	1004d23a 	srli	r2,r2,8
 2001498:	10c03fcc 	andi	r3,r2,255
 200149c:	2005883a 	mov	r2,r4
 20014a0:	10c00035 	stwio	r3,0(r2)

  IOWR_I2C_OPENCORES_CTR(base, I2C_OPENCORES_CTR_EN_MSK); /* turn on the core*/
 20014a4:	e0bffd17 	ldw	r2,-12(fp)
 20014a8:	10800204 	addi	r2,r2,8
 20014ac:	1007883a 	mov	r3,r2
 20014b0:	00802004 	movi	r2,128
 20014b4:	18800035 	stwio	r2,0(r3)

}
 20014b8:	e037883a 	mov	sp,fp
 20014bc:	dfc00117 	ldw	ra,4(sp)
 20014c0:	df000017 	ldw	fp,0(sp)
 20014c4:	dec00204 	addi	sp,sp,8
 20014c8:	f800283a 	ret

020014cc <I2C_start>:
       0 if address is acknowledged
       1 if address was not acknowledged
15-OCT-07 initial release
*****************************************************************/
int I2C_start(alt_u32 base, alt_u32 add, alt_u32 read)
{
 20014cc:	defffb04 	addi	sp,sp,-20
 20014d0:	df000415 	stw	fp,16(sp)
 20014d4:	df000404 	addi	fp,sp,16
 20014d8:	e13ffc15 	stw	r4,-16(fp)
 20014dc:	e17ffd15 	stw	r5,-12(fp)
 20014e0:	e1bffe15 	stw	r6,-8(fp)
#ifdef  I2C_DEBUG
        printf(" Start  I2C at 0x%x, \n\twith address 0x%x \n\tand read 0x%x \n\tand prescale 0x%x\n",base,add,read);
#endif

          /* transmit the address shifted by one and the read/write bit*/
  IOWR_I2C_OPENCORES_TXR(base, ((add<<1) + (0x1 & read)));
 20014e4:	e0bffc17 	ldw	r2,-16(fp)
 20014e8:	11000304 	addi	r4,r2,12
 20014ec:	e0bffd17 	ldw	r2,-12(fp)
 20014f0:	1085883a 	add	r2,r2,r2
 20014f4:	1007883a 	mov	r3,r2
 20014f8:	e0bffe17 	ldw	r2,-8(fp)
 20014fc:	1080004c 	andi	r2,r2,1
 2001500:	1885883a 	add	r2,r3,r2
 2001504:	1007883a 	mov	r3,r2
 2001508:	2005883a 	mov	r2,r4
 200150c:	10c00035 	stwio	r3,0(r2)

          /* set start and write  bits which will start the transaction*/
  IOWR_I2C_OPENCORES_CR(base, I2C_OPENCORES_CR_STA_MSK | I2C_OPENCORES_CR_WR_MSK );
 2001510:	e0bffc17 	ldw	r2,-16(fp)
 2001514:	10800404 	addi	r2,r2,16
 2001518:	1007883a 	mov	r3,r2
 200151c:	00802404 	movi	r2,144
 2001520:	18800035 	stwio	r2,0(r3)

          /* wait for the trnasaction to be over.*/
  while( IORD_I2C_OPENCORES_SR(base) & I2C_OPENCORES_SR_TIP_MSK);
 2001524:	e0bffc17 	ldw	r2,-16(fp)
 2001528:	10800404 	addi	r2,r2,16
 200152c:	10800037 	ldwio	r2,0(r2)
 2001530:	1080008c 	andi	r2,r2,2
 2001534:	1004c03a 	cmpne	r2,r2,zero
 2001538:	103ffa1e 	bne	r2,zero,2001524 <I2C_start+0x58>

         /* now check to see if the address was acknowledged */
   if(IORD_I2C_OPENCORES_SR(base) & I2C_OPENCORES_SR_RXNACK_MSK)
 200153c:	e0bffc17 	ldw	r2,-16(fp)
 2001540:	10800404 	addi	r2,r2,16
 2001544:	10800037 	ldwio	r2,0(r2)
 2001548:	1080200c 	andi	r2,r2,128
 200154c:	1005003a 	cmpeq	r2,r2,zero
 2001550:	1000031e 	bne	r2,zero,2001560 <I2C_start+0x94>
   {
#ifdef  I2C_DEBUG
        printf("\tNOACK\n");
#endif
        return (I2C_NOACK);
 2001554:	00800044 	movi	r2,1
 2001558:	e0bfff15 	stw	r2,-4(fp)
 200155c:	00000106 	br	2001564 <I2C_start+0x98>
   else
   {
#ifdef  I2C_DEBUG
        printf("\tACK\n");
#endif
       return (I2C_ACK);
 2001560:	e03fff15 	stw	zero,-4(fp)
 2001564:	e0bfff17 	ldw	r2,-4(fp)
   }
}
 2001568:	e037883a 	mov	sp,fp
 200156c:	df000017 	ldw	fp,0(sp)
 2001570:	dec00104 	addi	sp,sp,4
 2001574:	f800283a 	ret

02001578 <I2C_read>:
return value
       byte read back.
15-OCT-07 initial release
*****************************************************************/
alt_u32 I2C_read(alt_u32 base,alt_u32 last)
{
 2001578:	defffd04 	addi	sp,sp,-12
 200157c:	df000215 	stw	fp,8(sp)
 2001580:	df000204 	addi	fp,sp,8
 2001584:	e13ffe15 	stw	r4,-8(fp)
 2001588:	e17fff15 	stw	r5,-4(fp)
#ifdef  I2C_DEBUG
        printf(" Read I2C at 0x%x, \n\twith last0x%x\n",base,last);
#endif
  if( last)
 200158c:	e0bfff17 	ldw	r2,-4(fp)
 2001590:	1005003a 	cmpeq	r2,r2,zero
 2001594:	1000061e 	bne	r2,zero,20015b0 <I2C_read+0x38>
  {
               /* start a read and no ack and stop bit*/
           IOWR_I2C_OPENCORES_CR(base, I2C_OPENCORES_CR_RD_MSK |
 2001598:	e0bffe17 	ldw	r2,-8(fp)
 200159c:	10800404 	addi	r2,r2,16
 20015a0:	1007883a 	mov	r3,r2
 20015a4:	00801a04 	movi	r2,104
 20015a8:	18800035 	stwio	r2,0(r3)
 20015ac:	00000506 	br	20015c4 <I2C_read+0x4c>
               I2C_OPENCORES_CR_NACK_MSK | I2C_OPENCORES_CR_STO_MSK);
  }
  else
  {
          /* start read*/
          IOWR_I2C_OPENCORES_CR(base, I2C_OPENCORES_CR_RD_MSK );
 20015b0:	e0bffe17 	ldw	r2,-8(fp)
 20015b4:	10800404 	addi	r2,r2,16
 20015b8:	1007883a 	mov	r3,r2
 20015bc:	00800804 	movi	r2,32
 20015c0:	18800035 	stwio	r2,0(r3)
  }
          /* wait for the trnasaction to be over.*/
  while( IORD_I2C_OPENCORES_SR(base) & I2C_OPENCORES_SR_TIP_MSK);
 20015c4:	e0bffe17 	ldw	r2,-8(fp)
 20015c8:	10800404 	addi	r2,r2,16
 20015cc:	10800037 	ldwio	r2,0(r2)
 20015d0:	1080008c 	andi	r2,r2,2
 20015d4:	1004c03a 	cmpne	r2,r2,zero
 20015d8:	103ffa1e 	bne	r2,zero,20015c4 <I2C_read+0x4c>

         /* now read the data */
        return (IORD_I2C_OPENCORES_RXR(base));
 20015dc:	e0bffe17 	ldw	r2,-8(fp)
 20015e0:	10800304 	addi	r2,r2,12
 20015e4:	10800037 	ldwio	r2,0(r2)

}
 20015e8:	e037883a 	mov	sp,fp
 20015ec:	df000017 	ldw	fp,0(sp)
 20015f0:	dec00104 	addi	sp,sp,4
 20015f4:	f800283a 	ret

020015f8 <I2C_write>:
       0 if address is acknowledged
       1 if address was not acknowledged
15-OCT-07 initial release
*****************************************************************/
alt_u32 I2C_write(alt_u32 base,alt_u8 data, alt_u32 last)
{
 20015f8:	defffb04 	addi	sp,sp,-20
 20015fc:	df000415 	stw	fp,16(sp)
 2001600:	df000404 	addi	fp,sp,16
 2001604:	e13ffc15 	stw	r4,-16(fp)
 2001608:	e1bffe15 	stw	r6,-8(fp)
 200160c:	e17ffd05 	stb	r5,-12(fp)
  #ifdef  I2C_DEBUG
        printf(" Read I2C at 0x%x, \n\twith data 0x%x,\n\twith last0x%x\n",base,data,last);
#endif
                 /* transmit the data*/
  IOWR_I2C_OPENCORES_TXR(base, data);
 2001610:	e0bffc17 	ldw	r2,-16(fp)
 2001614:	10800304 	addi	r2,r2,12
 2001618:	e0fffd03 	ldbu	r3,-12(fp)
 200161c:	10c00035 	stwio	r3,0(r2)

  if( last)
 2001620:	e0bffe17 	ldw	r2,-8(fp)
 2001624:	1005003a 	cmpeq	r2,r2,zero
 2001628:	1000061e 	bne	r2,zero,2001644 <I2C_write+0x4c>
  {
               /* start a read and no ack and stop bit*/
           IOWR_I2C_OPENCORES_CR(base, I2C_OPENCORES_CR_WR_MSK |
 200162c:	e0bffc17 	ldw	r2,-16(fp)
 2001630:	10800404 	addi	r2,r2,16
 2001634:	1007883a 	mov	r3,r2
 2001638:	00801404 	movi	r2,80
 200163c:	18800035 	stwio	r2,0(r3)
 2001640:	00000506 	br	2001658 <I2C_write+0x60>
               I2C_OPENCORES_CR_STO_MSK);
  }
  else
  {
          /* start read*/
          IOWR_I2C_OPENCORES_CR(base, I2C_OPENCORES_CR_WR_MSK );
 2001644:	e0bffc17 	ldw	r2,-16(fp)
 2001648:	10800404 	addi	r2,r2,16
 200164c:	1007883a 	mov	r3,r2
 2001650:	00800404 	movi	r2,16
 2001654:	18800035 	stwio	r2,0(r3)
  }
           /* wait for the trnasaction to be over.*/
  while( IORD_I2C_OPENCORES_SR(base) & I2C_OPENCORES_SR_TIP_MSK);
 2001658:	e0bffc17 	ldw	r2,-16(fp)
 200165c:	10800404 	addi	r2,r2,16
 2001660:	10800037 	ldwio	r2,0(r2)
 2001664:	1080008c 	andi	r2,r2,2
 2001668:	1004c03a 	cmpne	r2,r2,zero
 200166c:	103ffa1e 	bne	r2,zero,2001658 <I2C_write+0x60>

         /* now check to see if the address was acknowledged */
   if(IORD_I2C_OPENCORES_SR(base) & I2C_OPENCORES_SR_RXNACK_MSK)
 2001670:	e0bffc17 	ldw	r2,-16(fp)
 2001674:	10800404 	addi	r2,r2,16
 2001678:	10800037 	ldwio	r2,0(r2)
 200167c:	1080200c 	andi	r2,r2,128
 2001680:	1005003a 	cmpeq	r2,r2,zero
 2001684:	1000031e 	bne	r2,zero,2001694 <I2C_write+0x9c>
   {
#ifdef  I2C_DEBUG
        printf("\tNOACK\n");
#endif
        return (I2C_NOACK);
 2001688:	00800044 	movi	r2,1
 200168c:	e0bfff15 	stw	r2,-4(fp)
 2001690:	00000106 	br	2001698 <I2C_write+0xa0>
   else
   {
#ifdef  I2C_DEBUG
        printf("\tACK\n");
#endif
       return (I2C_ACK);
 2001694:	e03fff15 	stw	zero,-4(fp)
 2001698:	e0bfff17 	ldw	r2,-4(fp)
   }

}
 200169c:	e037883a 	mov	sp,fp
 20016a0:	df000017 	ldw	fp,0(sp)
 20016a4:	dec00104 	addi	sp,sp,4
 20016a8:	f800283a 	ret

020016ac <write_JY901>:
      Register_Address = the  address of the registers
      Data = Required data to be written

*****************************************************************/
void write_JY901(alt_u8 Register_Address,alt_u8 Data)
{
 20016ac:	defffc04 	addi	sp,sp,-16
 20016b0:	dfc00315 	stw	ra,12(sp)
 20016b4:	df000215 	stw	fp,8(sp)
 20016b8:	df000204 	addi	fp,sp,8
 20016bc:	e13ffe05 	stb	r4,-8(fp)
 20016c0:	e17fff05 	stb	r5,-4(fp)
	I2C_start(OPENCORES_I2C_JY901_BASE,JY901_ADDRESS,0);
 20016c4:	01000804 	movi	r4,32
 20016c8:	01401404 	movi	r5,80
 20016cc:	000d883a 	mov	r6,zero
 20016d0:	20014cc0 	call	20014cc <I2C_start>
	I2C_write(OPENCORES_I2C_JY901_BASE,Register_Address,0);
 20016d4:	e17ffe03 	ldbu	r5,-8(fp)
 20016d8:	01000804 	movi	r4,32
 20016dc:	000d883a 	mov	r6,zero
 20016e0:	20015f80 	call	20015f8 <I2C_write>
	I2C_write(OPENCORES_I2C_JY901_BASE,Data,1);
 20016e4:	e17fff03 	ldbu	r5,-4(fp)
 20016e8:	01000804 	movi	r4,32
 20016ec:	01800044 	movi	r6,1
 20016f0:	20015f80 	call	20015f8 <I2C_write>
}
 20016f4:	e037883a 	mov	sp,fp
 20016f8:	dfc00117 	ldw	ra,4(sp)
 20016fc:	df000017 	ldw	fp,0(sp)
 2001700:	dec00204 	addi	sp,sp,8
 2001704:	f800283a 	ret

02001708 <read_JY901>:
inputs
     Register_Address = the  address of the registers

*****************************************************************/
float read_JY901(alt_u8 Register_Address)
{
 2001708:	defffb04 	addi	sp,sp,-20
 200170c:	dfc00415 	stw	ra,16(sp)
 2001710:	df000315 	stw	fp,12(sp)
 2001714:	df000304 	addi	fp,sp,12
 2001718:	e13fff05 	stb	r4,-4(fp)
	 alt_u8 dataHigh=0;
 200171c:	e03ffec5 	stb	zero,-5(fp)
	 alt_u8 dataLow=0;
 2001720:	e03ffe85 	stb	zero,-6(fp)
	 alt_u16 data = 0;
 2001724:	e03ffe0d 	sth	zero,-8(fp)
	 float angle;
	 I2C_start(OPENCORES_I2C_JY901_BASE,JY901_ADDRESS,0);        //address the chip in write mode
 2001728:	01000804 	movi	r4,32
 200172c:	01401404 	movi	r5,80
 2001730:	000d883a 	mov	r6,zero
 2001734:	20014cc0 	call	20014cc <I2C_start>
	 I2C_write(OPENCORES_I2C_JY901_BASE,Register_Address,0);     // set command to read input register.
 2001738:	e17fff03 	ldbu	r5,-4(fp)
 200173c:	01000804 	movi	r4,32
 2001740:	000d883a 	mov	r6,zero
 2001744:	20015f80 	call	20015f8 <I2C_write>
	 I2C_start(OPENCORES_I2C_JY901_BASE,JY901_ADDRESS,1);        //send start again but this time in read mode
 2001748:	01000804 	movi	r4,32
 200174c:	01401404 	movi	r5,80
 2001750:	01800044 	movi	r6,1
 2001754:	20014cc0 	call	20014cc <I2C_start>
	 dataLow=I2C_read(OPENCORES_I2C_JY901_BASE,0);
 2001758:	01000804 	movi	r4,32
 200175c:	000b883a 	mov	r5,zero
 2001760:	20015780 	call	2001578 <I2C_read>
 2001764:	e0bffe85 	stb	r2,-6(fp)
	 dataHigh=I2C_read(OPENCORES_I2C_JY901_BASE,1);
 2001768:	01000804 	movi	r4,32
 200176c:	01400044 	movi	r5,1
 2001770:	20015780 	call	2001578 <I2C_read>
 2001774:	e0bffec5 	stb	r2,-5(fp)

	 data=dataHigh<<8|dataLow;
 2001778:	e0bffec3 	ldbu	r2,-5(fp)
 200177c:	1004923a 	slli	r2,r2,8
 2001780:	1007883a 	mov	r3,r2
 2001784:	e0bffe83 	ldbu	r2,-6(fp)
 2001788:	1884b03a 	or	r2,r3,r2
 200178c:	e0bffe0d 	sth	r2,-8(fp)
	 angle = (float)data/32768*180;
 2001790:	e13ffe0b 	ldhu	r4,-8(fp)
 2001794:	20034140 	call	2003414 <__floatunsisf>
 2001798:	1009883a 	mov	r4,r2
 200179c:	0151c034 	movhi	r5,18176
 20017a0:	20030300 	call	2003030 <__divsf3>
 20017a4:	1009883a 	mov	r4,r2
 20017a8:	0150cd34 	movhi	r5,17204
 20017ac:	2002e500 	call	2002e50 <__mulsf3>
 20017b0:	e0bffd15 	stw	r2,-12(fp)
	 return(angle);                 				// read the input register and send stop
 20017b4:	e0bffd17 	ldw	r2,-12(fp)
}
 20017b8:	e037883a 	mov	sp,fp
 20017bc:	dfc00117 	ldw	ra,4(sp)
 20017c0:	df000017 	ldw	fp,0(sp)
 20017c4:	dec00204 	addi	sp,sp,8
 20017c8:	f800283a 	ret

020017cc <JY901Init>:
     this function is to get the JY901's bias.
inputs
     none

*****************************************************************/
void JY901Init(){
 20017cc:	defffe04 	addi	sp,sp,-8
 20017d0:	dfc00115 	stw	ra,4(sp)
 20017d4:	df000015 	stw	fp,0(sp)
 20017d8:	d839883a 	mov	fp,sp
	I2C_init(OPENCORES_I2C_JY901_BASE,ALT_CPU_FREQ,100000);
 20017dc:	01000804 	movi	r4,32
 20017e0:	0140bef4 	movhi	r5,763
 20017e4:	297c2004 	addi	r5,r5,-3968
 20017e8:	018000b4 	movhi	r6,2
 20017ec:	31a1a804 	addi	r6,r6,-31072
 20017f0:	20014200 	call	2001420 <I2C_init>
	standardAngle.roll = read_JY901(Roll);
 20017f4:	01000f44 	movi	r4,61
 20017f8:	20017080 	call	2001708 <read_JY901>
 20017fc:	1007883a 	mov	r3,r2
 2001800:	00808074 	movhi	r2,513
 2001804:	10968204 	addi	r2,r2,23048
 2001808:	10c00015 	stw	r3,0(r2)
	standardAngle.pitch = read_JY901(Pitch);
 200180c:	01000f84 	movi	r4,62
 2001810:	20017080 	call	2001708 <read_JY901>
 2001814:	1007883a 	mov	r3,r2
 2001818:	00808074 	movhi	r2,513
 200181c:	10968204 	addi	r2,r2,23048
 2001820:	10c00115 	stw	r3,4(r2)
	standardAngle.yaw = read_JY901(Yaw);
 2001824:	01000fc4 	movi	r4,63
 2001828:	20017080 	call	2001708 <read_JY901>
 200182c:	1007883a 	mov	r3,r2
 2001830:	00808074 	movhi	r2,513
 2001834:	10968204 	addi	r2,r2,23048
 2001838:	10c00215 	stw	r3,8(r2)

	printf("standardRoll: %f\n",standardAngle.roll);
 200183c:	00808074 	movhi	r2,513
 2001840:	10968204 	addi	r2,r2,23048
 2001844:	10800017 	ldw	r2,0(r2)
 2001848:	1009883a 	mov	r4,r2
 200184c:	20033c00 	call	20033c0 <__extendsfdf2>
 2001850:	100d883a 	mov	r6,r2
 2001854:	180f883a 	mov	r7,r3
 2001858:	01008074 	movhi	r4,513
 200185c:	210df504 	addi	r4,r4,14292
 2001860:	300b883a 	mov	r5,r6
 2001864:	380d883a 	mov	r6,r7
 2001868:	2004f440 	call	2004f44 <printf>
	printf("standardPitch: %f\n",standardAngle.pitch);
 200186c:	00808074 	movhi	r2,513
 2001870:	10968204 	addi	r2,r2,23048
 2001874:	10800117 	ldw	r2,4(r2)
 2001878:	1009883a 	mov	r4,r2
 200187c:	20033c00 	call	20033c0 <__extendsfdf2>
 2001880:	100d883a 	mov	r6,r2
 2001884:	180f883a 	mov	r7,r3
 2001888:	01008074 	movhi	r4,513
 200188c:	210dfa04 	addi	r4,r4,14312
 2001890:	300b883a 	mov	r5,r6
 2001894:	380d883a 	mov	r6,r7
 2001898:	2004f440 	call	2004f44 <printf>
	printf("standardYaw: %f\n",standardAngle.yaw);
 200189c:	00808074 	movhi	r2,513
 20018a0:	10968204 	addi	r2,r2,23048
 20018a4:	10800217 	ldw	r2,8(r2)
 20018a8:	1009883a 	mov	r4,r2
 20018ac:	20033c00 	call	20033c0 <__extendsfdf2>
 20018b0:	100d883a 	mov	r6,r2
 20018b4:	180f883a 	mov	r7,r3
 20018b8:	01008074 	movhi	r4,513
 20018bc:	210dff04 	addi	r4,r4,14332
 20018c0:	300b883a 	mov	r5,r6
 20018c4:	380d883a 	mov	r6,r7
 20018c8:	2004f440 	call	2004f44 <printf>
}
 20018cc:	e037883a 	mov	sp,fp
 20018d0:	dfc00117 	ldw	ra,4(sp)
 20018d4:	df000017 	ldw	fp,0(sp)
 20018d8:	dec00204 	addi	sp,sp,8
 20018dc:	f800283a 	ret

020018e0 <main>:

//g_stopFlag&&g_protectFlag


int main()
{
 20018e0:	defffe04 	addi	sp,sp,-8
 20018e4:	dfc00115 	stw	ra,4(sp)
 20018e8:	df000015 	stw	fp,0(sp)
 20018ec:	d839883a 	mov	fp,sp

	bspInit();
 20018f0:	20001fc0 	call	20001fc <bspInit>
  	printf("The aircraft will take off!\n");
 20018f4:	01008074 	movhi	r4,513
 20018f8:	210e0404 	addi	r4,r4,14352
 20018fc:	200505c0 	call	200505c <puts>
 2001900:	00000006 	br	2001904 <main+0x24>

  	while(1){
  		if(g_flag5ms == 1){
 2001904:	d0a01d83 	ldbu	r2,-32650(gp)
 2001908:	10803fcc 	andi	r2,r2,255
 200190c:	10800058 	cmpnei	r2,r2,1
 2001910:	1000021e 	bne	r2,zero,200191c <main+0x3c>
  			MotorControl();
 2001914:	20002380 	call	2000238 <MotorControl>
  			g_flag5ms = 0;
 2001918:	d0201d85 	stb	zero,-32650(gp)
  		}
  		if(g_flag20ms == 1){
 200191c:	d0a01dc3 	ldbu	r2,-32649(gp)
 2001920:	10803fcc 	andi	r2,r2,255
 2001924:	10800058 	cmpnei	r2,r2,1
 2001928:	103ff61e 	bne	r2,zero,2001904 <main+0x24>
  			GetHeight();
 200192c:	2001d300 	call	2001d30 <GetHeight>
  			g_flag20ms = 0;
 2001930:	d0201dc5 	stb	zero,-32649(gp)
   		}
  	}
 2001934:	003ff306 	br	2001904 <main+0x24>

02001938 <moto_setting>:
return
	 none

*****************************************************************/
void moto_setting(int moto_i,int moto_F,int moto_D)
{
 2001938:	defffa04 	addi	sp,sp,-24
 200193c:	dfc00515 	stw	ra,20(sp)
 2001940:	df000415 	stw	fp,16(sp)
 2001944:	df000404 	addi	fp,sp,16
 2001948:	e13ffc15 	stw	r4,-16(fp)
 200194c:	e17ffd15 	stw	r5,-12(fp)
 2001950:	e1bffe15 	stw	r6,-8(fp)
	switch(moto_i)
 2001954:	e0bffc17 	ldw	r2,-16(fp)
 2001958:	e0bfff15 	stw	r2,-4(fp)
 200195c:	e0ffff17 	ldw	r3,-4(fp)
 2001960:	188000a0 	cmpeqi	r2,r3,2
 2001964:	10002b1e 	bne	r2,zero,2001a14 <moto_setting+0xdc>
 2001968:	e0ffff17 	ldw	r3,-4(fp)
 200196c:	188000c8 	cmpgei	r2,r3,3
 2001970:	1000041e 	bne	r2,zero,2001984 <moto_setting+0x4c>
 2001974:	e0ffff17 	ldw	r3,-4(fp)
 2001978:	18800060 	cmpeqi	r2,r3,1
 200197c:	1000081e 	bne	r2,zero,20019a0 <moto_setting+0x68>
 2001980:	00007b06 	br	2001b70 <moto_setting+0x238>
 2001984:	e0ffff17 	ldw	r3,-4(fp)
 2001988:	188000e0 	cmpeqi	r2,r3,3
 200198c:	10003e1e 	bne	r2,zero,2001a88 <moto_setting+0x150>
 2001990:	e0ffff17 	ldw	r3,-4(fp)
 2001994:	18800120 	cmpeqi	r2,r3,4
 2001998:	1000581e 	bne	r2,zero,2001afc <moto_setting+0x1c4>
 200199c:	00007406 	br	2001b70 <moto_setting+0x238>
	{
	case(1):
	{
		IOWR(WR_BASE,0,0);
 20019a0:	00810234 	movhi	r2,1032
 20019a4:	10881004 	addi	r2,r2,8256
 20019a8:	10000035 	stwio	zero,0(r2)
		IOWR(ADDR_BASE,0,0);
 20019ac:	00810234 	movhi	r2,1032
 20019b0:	10881404 	addi	r2,r2,8272
 20019b4:	10000035 	stwio	zero,0(r2)
		IOWR(PIO_1_BASE,0,(50000000/moto_F));//fa-250  C8-200  F4240-1000000
 20019b8:	0100bef4 	movhi	r4,763
 20019bc:	213c2004 	addi	r4,r4,-3968
 20019c0:	e17ffd17 	ldw	r5,-12(fp)
 20019c4:	20044100 	call	2004410 <__divsi3>
 20019c8:	1007883a 	mov	r3,r2
 20019cc:	00810234 	movhi	r2,1032
 20019d0:	10880c04 	addi	r2,r2,8240
 20019d4:	10c00035 	stwio	r3,0(r2)
		IOWR(ADDR_BASE,0,1);
 20019d8:	00c10234 	movhi	r3,1032
 20019dc:	18c81404 	addi	r3,r3,8272
 20019e0:	00800044 	movi	r2,1
 20019e4:	18800035 	stwio	r2,0(r3)
		IOWR(PIO_1_BASE,0,(1000000-moto_D));//7d-125  64-100
 20019e8:	00c003f4 	movhi	r3,15
 20019ec:	18d09004 	addi	r3,r3,16960
 20019f0:	e0bffe17 	ldw	r2,-8(fp)
 20019f4:	1887c83a 	sub	r3,r3,r2
 20019f8:	00810234 	movhi	r2,1032
 20019fc:	10880c04 	addi	r2,r2,8240
 2001a00:	10c00035 	stwio	r3,0(r2)
		IOWR(WR_BASE,0,1);
 2001a04:	00c10234 	movhi	r3,1032
 2001a08:	18c81004 	addi	r3,r3,8256
 2001a0c:	00800044 	movi	r2,1
 2001a10:	18800035 	stwio	r2,0(r3)
	}
	case(2):
	{
		IOWR(WR2_BASE,0,0);
 2001a14:	00810234 	movhi	r2,1032
 2001a18:	10883004 	addi	r2,r2,8384
 2001a1c:	10000035 	stwio	zero,0(r2)
		IOWR(ADDR2_BASE,0,0);
 2001a20:	00810234 	movhi	r2,1032
 2001a24:	10882404 	addi	r2,r2,8336
 2001a28:	10000035 	stwio	zero,0(r2)
		IOWR(PIO_2_BASE,0,(50000000/moto_F));//fa
 2001a2c:	0100bef4 	movhi	r4,763
 2001a30:	213c2004 	addi	r4,r4,-3968
 2001a34:	e17ffd17 	ldw	r5,-12(fp)
 2001a38:	20044100 	call	2004410 <__divsi3>
 2001a3c:	1007883a 	mov	r3,r2
 2001a40:	00810234 	movhi	r2,1032
 2001a44:	10881804 	addi	r2,r2,8288
 2001a48:	10c00035 	stwio	r3,0(r2)
		IOWR(ADDR2_BASE,0,1);
 2001a4c:	00c10234 	movhi	r3,1032
 2001a50:	18c82404 	addi	r3,r3,8336
 2001a54:	00800044 	movi	r2,1
 2001a58:	18800035 	stwio	r2,0(r3)
		IOWR(PIO_2_BASE,0,(1000000-moto_D));//7d
 2001a5c:	00c003f4 	movhi	r3,15
 2001a60:	18d09004 	addi	r3,r3,16960
 2001a64:	e0bffe17 	ldw	r2,-8(fp)
 2001a68:	1887c83a 	sub	r3,r3,r2
 2001a6c:	00810234 	movhi	r2,1032
 2001a70:	10881804 	addi	r2,r2,8288
 2001a74:	10c00035 	stwio	r3,0(r2)
		IOWR(WR2_BASE,0,1);
 2001a78:	00c10234 	movhi	r3,1032
 2001a7c:	18c83004 	addi	r3,r3,8384
 2001a80:	00800044 	movi	r2,1
 2001a84:	18800035 	stwio	r2,0(r3)
	}
	case(3):
		{
		IOWR(WR3_BASE,0,0);
 2001a88:	00810234 	movhi	r2,1032
 2001a8c:	10883404 	addi	r2,r2,8400
 2001a90:	10000035 	stwio	zero,0(r2)
	    IOWR(ADDR3_BASE,0,0);
 2001a94:	00810234 	movhi	r2,1032
 2001a98:	10882804 	addi	r2,r2,8352
 2001a9c:	10000035 	stwio	zero,0(r2)
	    IOWR(PIO_3_BASE,0,(50000000/moto_F));//fa
 2001aa0:	0100bef4 	movhi	r4,763
 2001aa4:	213c2004 	addi	r4,r4,-3968
 2001aa8:	e17ffd17 	ldw	r5,-12(fp)
 2001aac:	20044100 	call	2004410 <__divsi3>
 2001ab0:	1007883a 	mov	r3,r2
 2001ab4:	00810234 	movhi	r2,1032
 2001ab8:	10881c04 	addi	r2,r2,8304
 2001abc:	10c00035 	stwio	r3,0(r2)
	    IOWR(ADDR3_BASE,0,1);
 2001ac0:	00c10234 	movhi	r3,1032
 2001ac4:	18c82804 	addi	r3,r3,8352
 2001ac8:	00800044 	movi	r2,1
 2001acc:	18800035 	stwio	r2,0(r3)
	    IOWR(PIO_3_BASE,0,(1000000-moto_D));//7d
 2001ad0:	00c003f4 	movhi	r3,15
 2001ad4:	18d09004 	addi	r3,r3,16960
 2001ad8:	e0bffe17 	ldw	r2,-8(fp)
 2001adc:	1887c83a 	sub	r3,r3,r2
 2001ae0:	00810234 	movhi	r2,1032
 2001ae4:	10881c04 	addi	r2,r2,8304
 2001ae8:	10c00035 	stwio	r3,0(r2)
	    IOWR(WR3_BASE,0,1);
 2001aec:	00c10234 	movhi	r3,1032
 2001af0:	18c83404 	addi	r3,r3,8400
 2001af4:	00800044 	movi	r2,1
 2001af8:	18800035 	stwio	r2,0(r3)
		}

	case(4):
	{
	  	IOWR(WR4_BASE,0,0);
 2001afc:	00810234 	movhi	r2,1032
 2001b00:	10883804 	addi	r2,r2,8416
 2001b04:	10000035 	stwio	zero,0(r2)
	    IOWR(ADDR4_BASE,0,0);
 2001b08:	00810234 	movhi	r2,1032
 2001b0c:	10882c04 	addi	r2,r2,8368
 2001b10:	10000035 	stwio	zero,0(r2)
	    IOWR(PIO_4_BASE,0,(50000000/moto_F));//fa
 2001b14:	0100bef4 	movhi	r4,763
 2001b18:	213c2004 	addi	r4,r4,-3968
 2001b1c:	e17ffd17 	ldw	r5,-12(fp)
 2001b20:	20044100 	call	2004410 <__divsi3>
 2001b24:	1007883a 	mov	r3,r2
 2001b28:	00810234 	movhi	r2,1032
 2001b2c:	10882004 	addi	r2,r2,8320
 2001b30:	10c00035 	stwio	r3,0(r2)
	    IOWR(ADDR4_BASE,0,1);
 2001b34:	00c10234 	movhi	r3,1032
 2001b38:	18c82c04 	addi	r3,r3,8368
 2001b3c:	00800044 	movi	r2,1
 2001b40:	18800035 	stwio	r2,0(r3)
	    IOWR(PIO_4_BASE,0,(1000000-moto_D));//7d
 2001b44:	00c003f4 	movhi	r3,15
 2001b48:	18d09004 	addi	r3,r3,16960
 2001b4c:	e0bffe17 	ldw	r2,-8(fp)
 2001b50:	1887c83a 	sub	r3,r3,r2
 2001b54:	00810234 	movhi	r2,1032
 2001b58:	10882004 	addi	r2,r2,8320
 2001b5c:	10c00035 	stwio	r3,0(r2)
	    IOWR(WR4_BASE,0,1);
 2001b60:	00c10234 	movhi	r3,1032
 2001b64:	18c83804 	addi	r3,r3,8416
 2001b68:	00800044 	movi	r2,1
 2001b6c:	18800035 	stwio	r2,0(r3)
	}

	}
}
 2001b70:	e037883a 	mov	sp,fp
 2001b74:	dfc00117 	ldw	ra,4(sp)
 2001b78:	df000017 	ldw	fp,0(sp)
 2001b7c:	dec00204 	addi	sp,sp,8
 2001b80:	f800283a 	ret

02001b84 <moto_init>:
return
	 none

*****************************************************************/
void moto_init()
{
 2001b84:	defffe04 	addi	sp,sp,-8
 2001b88:	dfc00115 	stw	ra,4(sp)
 2001b8c:	df000015 	stw	fp,0(sp)
 2001b90:	d839883a 	mov	fp,sp
	moto_setting(1,50,120000);//--
 2001b94:	01000044 	movi	r4,1
 2001b98:	01400c84 	movi	r5,50
 2001b9c:	018000b4 	movhi	r6,2
 2001ba0:	31b53004 	addi	r6,r6,-11072
 2001ba4:	20019380 	call	2001938 <moto_setting>
	moto_setting(2,50,120000);//--
 2001ba8:	01000084 	movi	r4,2
 2001bac:	01400c84 	movi	r5,50
 2001bb0:	018000b4 	movhi	r6,2
 2001bb4:	31b53004 	addi	r6,r6,-11072
 2001bb8:	20019380 	call	2001938 <moto_setting>
	moto_setting(3,50,120000);//--
 2001bbc:	010000c4 	movi	r4,3
 2001bc0:	01400c84 	movi	r5,50
 2001bc4:	018000b4 	movhi	r6,2
 2001bc8:	31b53004 	addi	r6,r6,-11072
 2001bcc:	20019380 	call	2001938 <moto_setting>
	moto_setting(4,50,120000);//--
 2001bd0:	01000104 	movi	r4,4
 2001bd4:	01400c84 	movi	r5,50
 2001bd8:	018000b4 	movhi	r6,2
 2001bdc:	31b53004 	addi	r6,r6,-11072
 2001be0:	20019380 	call	2001938 <moto_setting>
	usleep(2000000);
 2001be4:	010007f4 	movhi	r4,31
 2001be8:	21212004 	addi	r4,r4,-31616
 2001bec:	200d7680 	call	200d768 <usleep>
	moto_setting(1,50,50000);
 2001bf0:	01000044 	movi	r4,1
 2001bf4:	01400c84 	movi	r5,50
 2001bf8:	01b0d414 	movui	r6,50000
 2001bfc:	20019380 	call	2001938 <moto_setting>
	moto_setting(2,50,50000);
 2001c00:	01000084 	movi	r4,2
 2001c04:	01400c84 	movi	r5,50
 2001c08:	01b0d414 	movui	r6,50000
 2001c0c:	20019380 	call	2001938 <moto_setting>
	moto_setting(3,50,50000);
 2001c10:	010000c4 	movi	r4,3
 2001c14:	01400c84 	movi	r5,50
 2001c18:	01b0d414 	movui	r6,50000
 2001c1c:	20019380 	call	2001938 <moto_setting>
	moto_setting(4,50,50000);
 2001c20:	01000104 	movi	r4,4
 2001c24:	01400c84 	movi	r5,50
 2001c28:	01b0d414 	movui	r6,50000
 2001c2c:	20019380 	call	2001938 <moto_setting>
	usleep(2000000);
 2001c30:	010007f4 	movhi	r4,31
 2001c34:	21212004 	addi	r4,r4,-31616
 2001c38:	200d7680 	call	200d768 <usleep>
}
 2001c3c:	e037883a 	mov	sp,fp
 2001c40:	dfc00117 	ldw	ra,4(sp)
 2001c44:	df000017 	ldw	fp,0(sp)
 2001c48:	dec00204 	addi	sp,sp,8
 2001c4c:	f800283a 	ret

02001c50 <isr_timer0>:
extern unsigned char g_flag20ms;
int stop = 0;

/**/
void isr_timer0()
{
 2001c50:	deffff04 	addi	sp,sp,-4
 2001c54:	df000015 	stw	fp,0(sp)
 2001c58:	d839883a 	mov	fp,sp
	/*stop ++;
	if(stop > 12000){
		g_stopFlag = 0;
	}*/
	timeFlag++;
 2001c5c:	d0a01e03 	ldbu	r2,-32648(gp)
 2001c60:	10800044 	addi	r2,r2,1
 2001c64:	d0a01e05 	stb	r2,-32648(gp)
	g_flag5ms = 1;
 2001c68:	00c08074 	movhi	r3,513
 2001c6c:	18d66484 	addi	r3,r3,22930
 2001c70:	00800044 	movi	r2,1
 2001c74:	18800005 	stb	r2,0(r3)
	if(timeFlag > 3){
 2001c78:	d0a01e03 	ldbu	r2,-32648(gp)
 2001c7c:	10803fcc 	andi	r2,r2,255
 2001c80:	10800130 	cmpltui	r2,r2,4
 2001c84:	1000051e 	bne	r2,zero,2001c9c <isr_timer0+0x4c>
		timeFlag = 0;
 2001c88:	d0201e05 	stb	zero,-32648(gp)
		g_flag20ms = 1;
 2001c8c:	00c08074 	movhi	r3,513
 2001c90:	18d664c4 	addi	r3,r3,22931
 2001c94:	00800044 	movi	r2,1
 2001c98:	18800005 	stb	r2,0(r3)
	}
    //IOWR_ALTERA_AVALON_UART_CONTROL(UART0_BASE,0);
    //IOWR_ALTERA_AVALON_UART_TXDATA(UART0_BASE, '\n');
	IOWR_ALTERA_AVALON_TIMER_STATUS(TIMER_0_BASE, 0x00);       //timer0
 2001c9c:	00810234 	movhi	r2,1032
 2001ca0:	10880004 	addi	r2,r2,8192
 2001ca4:	10000035 	stwio	zero,0(r2)
    //IOWR_ALTERA_AVALON_UART_CONTROL(UART0_BASE,ALTERA_AVALON_UART_CONTROL_TRDY_MSK);
}
 2001ca8:	e037883a 	mov	sp,fp
 2001cac:	df000017 	ldw	fp,0(sp)
 2001cb0:	dec00104 	addi	sp,sp,4
 2001cb4:	f800283a 	ret

02001cb8 <TimerInit>:


void TimerInit(void)
{
 2001cb8:	defffe04 	addi	sp,sp,-8
 2001cbc:	dfc00115 	stw	ra,4(sp)
 2001cc0:	df000015 	stw	fp,0(sp)
 2001cc4:	d839883a 	mov	fp,sp
     IOWR_ALTERA_AVALON_TIMER_STATUS(TIMER_0_BASE, 0x00);       //timer0
 2001cc8:	00810234 	movhi	r2,1032
 2001ccc:	10880004 	addi	r2,r2,8192
 2001cd0:	10000035 	stwio	zero,0(r2)
     IOWR_ALTERA_AVALON_TIMER_PERIODL(TIMER_0_BASE,250000);   //timer0	(kHz)*(ms)
 2001cd4:	00c10234 	movhi	r3,1032
 2001cd8:	18c80204 	addi	r3,r3,8200
 2001cdc:	00800134 	movhi	r2,4
 2001ce0:	10b42404 	addi	r2,r2,-12144
 2001ce4:	18800035 	stwio	r2,0(r3)
     IOWR_ALTERA_AVALON_TIMER_PERIODH(TIMER_0_BASE,250000 >> 16);
 2001ce8:	00c10234 	movhi	r3,1032
 2001cec:	18c80304 	addi	r3,r3,8204
 2001cf0:	008000c4 	movi	r2,3
 2001cf4:	18800035 	stwio	r2,0(r3)
     IOWR_ALTERA_AVALON_TIMER_CONTROL(TIMER_0_BASE, 0x07);      //timer0
 2001cf8:	00c10234 	movhi	r3,1032
 2001cfc:	18c80104 	addi	r3,r3,8196
 2001d00:	008001c4 	movi	r2,7
 2001d04:	18800035 	stwio	r2,0(r3)
     alt_irq_register(TIMER_0_IRQ, (void *)0, isr_timer0);      //timer0
 2001d08:	0009883a 	mov	r4,zero
 2001d0c:	000b883a 	mov	r5,zero
 2001d10:	01808034 	movhi	r6,512
 2001d14:	31871404 	addi	r6,r6,7248
 2001d18:	200cff00 	call	200cff0 <alt_irq_register>
}
 2001d1c:	e037883a 	mov	sp,fp
 2001d20:	dfc00117 	ldw	ra,4(sp)
 2001d24:	df000017 	ldw	fp,0(sp)
 2001d28:	dec00204 	addi	sp,sp,8
 2001d2c:	f800283a 	ret

02001d30 <GetHeight>:

alt_u16 status;
int uartData[2];
float g_preLength=0;

void GetHeight(){
 2001d30:	defffe04 	addi	sp,sp,-8
 2001d34:	dfc00115 	stw	ra,4(sp)
 2001d38:	df000015 	stw	fp,0(sp)
 2001d3c:	d839883a 	mov	fp,sp
	Uart_232_send(0x55);
 2001d40:	01001544 	movi	r4,85
 2001d44:	2001e100 	call	2001e10 <Uart_232_send>
}
 2001d48:	e037883a 	mov	sp,fp
 2001d4c:	dfc00117 	ldw	ra,4(sp)
 2001d50:	df000017 	ldw	fp,0(sp)
 2001d54:	dec00204 	addi	sp,sp,8
 2001d58:	f800283a 	ret

02001d5c <Uart_232_set_baudrate>:
 *         Name:  Uart_232_set_baudrate
 *      Description:  
 * =========================================================
 */
void Uart_232_set_baudrate(alt_u64 baudrate)
{
 2001d5c:	defffa04 	addi	sp,sp,-24
 2001d60:	dfc00515 	stw	ra,20(sp)
 2001d64:	df000415 	stw	fp,16(sp)
 2001d68:	df000404 	addi	fp,sp,16
 2001d6c:	e13ffe15 	stw	r4,-8(fp)
 2001d70:	e17fff15 	stw	r5,-4(fp)
	alt_u64 divisor;
	divisor=(alt_u64)(ALT_CPU_FREQ/baudrate+0.5);    //
 2001d74:	0100bef4 	movhi	r4,763
 2001d78:	213c2004 	addi	r4,r4,-3968
 2001d7c:	000b883a 	mov	r5,zero
 2001d80:	e1bffe17 	ldw	r6,-8(fp)
 2001d84:	e1ffff17 	ldw	r7,-4(fp)
 2001d88:	20025bc0 	call	20025bc <__udivdi3>
 2001d8c:	1009883a 	mov	r4,r2
 2001d90:	180b883a 	mov	r5,r3
 2001d94:	2005883a 	mov	r2,r4
 2001d98:	2807883a 	mov	r3,r5
 2001d9c:	1009883a 	mov	r4,r2
 2001da0:	180b883a 	mov	r5,r3
 2001da4:	20025340 	call	2002534 <__floatundidf>
 2001da8:	100b883a 	mov	r5,r2
 2001dac:	180d883a 	mov	r6,r3
 2001db0:	2809883a 	mov	r4,r5
 2001db4:	300b883a 	mov	r5,r6
 2001db8:	000d883a 	mov	r6,zero
 2001dbc:	01cff834 	movhi	r7,16352
 2001dc0:	20039640 	call	2003964 <__adddf3>
 2001dc4:	1009883a 	mov	r4,r2
 2001dc8:	180b883a 	mov	r5,r3
 2001dcc:	2005883a 	mov	r2,r4
 2001dd0:	2807883a 	mov	r3,r5
 2001dd4:	1009883a 	mov	r4,r2
 2001dd8:	180b883a 	mov	r5,r3
 2001ddc:	20024780 	call	2002478 <__fixunsdfdi>
 2001de0:	1009883a 	mov	r4,r2
 2001de4:	180b883a 	mov	r5,r3
 2001de8:	e13ffc15 	stw	r4,-16(fp)
 2001dec:	e17ffd15 	stw	r5,-12(fp)
	IOWR(US_100_UART_BASE, ALTERA_AVALON_UART_DIVISOR_REG, divisor);
 2001df0:	e0fffc17 	ldw	r3,-16(fp)
 2001df4:	00800404 	movi	r2,16
 2001df8:	10c00035 	stwio	r3,0(r2)
}
 2001dfc:	e037883a 	mov	sp,fp
 2001e00:	dfc00117 	ldw	ra,4(sp)
 2001e04:	df000017 	ldw	fp,0(sp)
 2001e08:	dec00204 	addi	sp,sp,8
 2001e0c:	f800283a 	ret

02001e10 <Uart_232_send>:
 *         Name:  Uart_232_send
 *      Description:  
 * =========================================================
 */
void Uart_232_send(unsigned char data)
{
 2001e10:	defffd04 	addi	sp,sp,-12
 2001e14:	dfc00215 	stw	ra,8(sp)
 2001e18:	df000115 	stw	fp,4(sp)
 2001e1c:	df000104 	addi	fp,sp,4
 2001e20:	e13fff05 	stb	r4,-4(fp)
    IOWR_ALTERA_AVALON_UART_TXDATA(US_100_UART_BASE,data);
 2001e24:	e0ffff03 	ldbu	r3,-4(fp)
 2001e28:	00800104 	movi	r2,4
 2001e2c:	10c00035 	stwio	r3,0(r2)
    status=IORD_ALTERA_AVALON_UART_STATUS(US_100_UART_BASE);
 2001e30:	00800204 	movi	r2,8
 2001e34:	10800037 	ldwio	r2,0(r2)
 2001e38:	d0a0230d 	sth	r2,-32628(gp)
    while(!(status&0x0040))    //
 2001e3c:	00000306 	br	2001e4c <Uart_232_send+0x3c>
        status=IORD_ALTERA_AVALON_UART_STATUS(US_100_UART_BASE);
 2001e40:	00800204 	movi	r2,8
 2001e44:	10800037 	ldwio	r2,0(r2)
 2001e48:	d0a0230d 	sth	r2,-32628(gp)
 */
void Uart_232_send(unsigned char data)
{
    IOWR_ALTERA_AVALON_UART_TXDATA(US_100_UART_BASE,data);
    status=IORD_ALTERA_AVALON_UART_STATUS(US_100_UART_BASE);
    while(!(status&0x0040))    //
 2001e4c:	d0a0230b 	ldhu	r2,-32628(gp)
 2001e50:	10bfffcc 	andi	r2,r2,65535
 2001e54:	1080100c 	andi	r2,r2,64
 2001e58:	1005003a 	cmpeq	r2,r2,zero
 2001e5c:	103ff81e 	bne	r2,zero,2001e40 <Uart_232_send+0x30>
        status=IORD_ALTERA_AVALON_UART_STATUS(US_100_UART_BASE);
    usleep(1000);
 2001e60:	0100fa04 	movi	r4,1000
 2001e64:	200d7680 	call	200d768 <usleep>
   // IOWR_ALTERA_AVALON_UART_TXDATA(UART_0_BASE,data);
}
 2001e68:	e037883a 	mov	sp,fp
 2001e6c:	dfc00117 	ldw	ra,4(sp)
 2001e70:	df000017 	ldw	fp,0(sp)
 2001e74:	dec00204 	addi	sp,sp,8
 2001e78:	f800283a 	ret

02001e7c <Uart_232_send_n>:
 *         Name:  Uart_232_send_n
 *      Description:  
 * =========================================================
 */
void Uart_232_send_n(unsigned char *ptr,unsigned char n)
{
 2001e7c:	defffc04 	addi	sp,sp,-16
 2001e80:	dfc00315 	stw	ra,12(sp)
 2001e84:	df000215 	stw	fp,8(sp)
 2001e88:	df000204 	addi	fp,sp,8
 2001e8c:	e13ffe15 	stw	r4,-8(fp)
 2001e90:	e17fff05 	stb	r5,-4(fp)
    for( ;n>0;n--)
 2001e94:	00000a06 	br	2001ec0 <Uart_232_send_n+0x44>
    {
    	Uart_232_send(*ptr);
 2001e98:	e0bffe17 	ldw	r2,-8(fp)
 2001e9c:	10800003 	ldbu	r2,0(r2)
 2001ea0:	11003fcc 	andi	r4,r2,255
 2001ea4:	2001e100 	call	2001e10 <Uart_232_send>
        ptr++;
 2001ea8:	e0bffe17 	ldw	r2,-8(fp)
 2001eac:	10800044 	addi	r2,r2,1
 2001eb0:	e0bffe15 	stw	r2,-8(fp)
 *      Description:  
 * =========================================================
 */
void Uart_232_send_n(unsigned char *ptr,unsigned char n)
{
    for( ;n>0;n--)
 2001eb4:	e0bfff03 	ldbu	r2,-4(fp)
 2001eb8:	10bfffc4 	addi	r2,r2,-1
 2001ebc:	e0bfff05 	stb	r2,-4(fp)
 2001ec0:	e0bfff03 	ldbu	r2,-4(fp)
 2001ec4:	1004c03a 	cmpne	r2,r2,zero
 2001ec8:	103ff31e 	bne	r2,zero,2001e98 <Uart_232_send_n+0x1c>
    {
    	Uart_232_send(*ptr);
        ptr++;
    }
}
 2001ecc:	e037883a 	mov	sp,fp
 2001ed0:	dfc00117 	ldw	ra,4(sp)
 2001ed4:	df000017 	ldw	fp,0(sp)
 2001ed8:	dec00204 	addi	sp,sp,8
 2001edc:	f800283a 	ret

02001ee0 <Uart_232_receive>:
 *         Name:  Uart_232_receive
 *      Description:  
 * =========================================================
 */
int Uart_232_receive(void)
{
 2001ee0:	defffe04 	addi	sp,sp,-8
 2001ee4:	df000115 	stw	fp,4(sp)
 2001ee8:	df000104 	addi	fp,sp,4
	int temp;
    status=IORD_ALTERA_AVALON_UART_STATUS(US_100_UART_BASE);
 2001eec:	00800204 	movi	r2,8
 2001ef0:	10800037 	ldwio	r2,0(r2)
 2001ef4:	d0a0230d 	sth	r2,-32628(gp)
    while(!(status&0x0080))//
 2001ef8:	00000306 	br	2001f08 <Uart_232_receive+0x28>
    status=IORD_ALTERA_AVALON_UART_STATUS(US_100_UART_BASE);
 2001efc:	00800204 	movi	r2,8
 2001f00:	10800037 	ldwio	r2,0(r2)
 2001f04:	d0a0230d 	sth	r2,-32628(gp)
 */
int Uart_232_receive(void)
{
	int temp;
    status=IORD_ALTERA_AVALON_UART_STATUS(US_100_UART_BASE);
    while(!(status&0x0080))//
 2001f08:	d0a0230b 	ldhu	r2,-32628(gp)
 2001f0c:	10bfffcc 	andi	r2,r2,65535
 2001f10:	1080200c 	andi	r2,r2,128
 2001f14:	1005003a 	cmpeq	r2,r2,zero
 2001f18:	103ff81e 	bne	r2,zero,2001efc <Uart_232_receive+0x1c>
    status=IORD_ALTERA_AVALON_UART_STATUS(US_100_UART_BASE);
    temp=IORD_ALTERA_AVALON_UART_RXDATA(US_100_UART_BASE);
 2001f1c:	0005883a 	mov	r2,zero
 2001f20:	10800037 	ldwio	r2,0(r2)
 2001f24:	e0bfff15 	stw	r2,-4(fp)
    IOWR_ALTERA_AVALON_UART_STATUS(US_100_UART_BASE, 0x0);//
 2001f28:	00800204 	movi	r2,8
 2001f2c:	10000035 	stwio	zero,0(r2)
    return temp;
 2001f30:	e0bfff17 	ldw	r2,-4(fp)
}
 2001f34:	e037883a 	mov	sp,fp
 2001f38:	df000017 	ldw	fp,0(sp)
 2001f3c:	dec00104 	addi	sp,sp,4
 2001f40:	f800283a 	ret

02001f44 <Uart_232_ISR>:
 *         Name:  Uart_232_ISR
 *      Description:  
 * =========================================================
 */
void Uart_232_ISR()
{
 2001f44:	defffc04 	addi	sp,sp,-16
 2001f48:	dfc00315 	stw	ra,12(sp)
 2001f4c:	df000215 	stw	fp,8(sp)
 2001f50:	dc000115 	stw	r16,4(sp)
 2001f54:	df000104 	addi	fp,sp,4

	unsigned char k;
	//static int lastLength = 0;
//	uartData[0]=Uart_232_receive();
	for(k=0;k<2;k++){
 2001f58:	e03fff05 	stb	zero,-4(fp)
 2001f5c:	00000b06 	br	2001f8c <Uart_232_ISR+0x48>
		uartData[k] = Uart_232_receive();
 2001f60:	e43fff03 	ldbu	r16,-4(fp)
 2001f64:	2001ee00 	call	2001ee0 <Uart_232_receive>
 2001f68:	1009883a 	mov	r4,r2
 2001f6c:	8405883a 	add	r2,r16,r16
 2001f70:	1087883a 	add	r3,r2,r2
 2001f74:	d0a02104 	addi	r2,gp,-32636
 2001f78:	1885883a 	add	r2,r3,r2
 2001f7c:	11000015 	stw	r4,0(r2)
{

	unsigned char k;
	//static int lastLength = 0;
//	uartData[0]=Uart_232_receive();
	for(k=0;k<2;k++){
 2001f80:	e0bfff03 	ldbu	r2,-4(fp)
 2001f84:	10800044 	addi	r2,r2,1
 2001f88:	e0bfff05 	stb	r2,-4(fp)
 2001f8c:	e0bfff03 	ldbu	r2,-4(fp)
 2001f90:	108000b0 	cmpltui	r2,r2,2
 2001f94:	103ff21e 	bne	r2,zero,2001f60 <Uart_232_ISR+0x1c>
		uartData[k] = Uart_232_receive();
	}

//	while(IORD_ALTERA_AVALON_UART_RXDATA(UART_232_BASE)!=0x0a)  //#
	g_preLength =uartData[0]* 256 +uartData[1];
 2001f98:	d0a02117 	ldw	r2,-32636(gp)
 2001f9c:	1006923a 	slli	r3,r2,8
 2001fa0:	00808074 	movhi	r2,513
 2001fa4:	10966904 	addi	r2,r2,22948
 2001fa8:	10800017 	ldw	r2,0(r2)
 2001fac:	1889883a 	add	r4,r3,r2
 2001fb0:	20032940 	call	2003294 <__floatsisf>
 2001fb4:	d0a02015 	stw	r2,-32640(gp)
	}
	lastLength = g_preLength;*/

	//printf("height : %d\n",g_preLength);

	IOWR_ALTERA_AVALON_UART_STATUS(US_100_UART_BASE, 0x00);//
 2001fb8:	00800204 	movi	r2,8
 2001fbc:	10000035 	stwio	zero,0(r2)
	IOWR_ALTERA_AVALON_UART_RXDATA(US_100_UART_BASE, 0x00);//
 2001fc0:	0005883a 	mov	r2,zero
 2001fc4:	10000035 	stwio	zero,0(r2)

}
 2001fc8:	e037883a 	mov	sp,fp
 2001fcc:	dfc00217 	ldw	ra,8(sp)
 2001fd0:	df000117 	ldw	fp,4(sp)
 2001fd4:	dc000017 	ldw	r16,0(sp)
 2001fd8:	dec00304 	addi	sp,sp,12
 2001fdc:	f800283a 	ret

02001fe0 <Uart_232_initial>:
 *      Description:  
 * =========================================================
 */
//unsigned int nirq_irq_context1;
void Uart_232_initial()
{
 2001fe0:	defffd04 	addi	sp,sp,-12
 2001fe4:	dfc00215 	stw	ra,8(sp)
 2001fe8:	df000115 	stw	fp,4(sp)
 2001fec:	df000104 	addi	fp,sp,4
	//void *irq_context_ptr = (void*)&nirq_irq_context1;
	Uart_232_set_baudrate(9600);
 2001ff0:	01096004 	movi	r4,9600
 2001ff4:	000b883a 	mov	r5,zero
 2001ff8:	2001d5c0 	call	2001d5c <Uart_232_set_baudrate>
    IOWR_ALTERA_AVALON_UART_CONTROL(US_100_UART_BASE, 0x80);//
 2001ffc:	00c00304 	movi	r3,12
 2002000:	00802004 	movi	r2,128
 2002004:	18800035 	stwio	r2,0(r3)
    IOWR_ALTERA_AVALON_UART_STATUS(US_100_UART_BASE, 0x00);//
 2002008:	00800204 	movi	r2,8
 200200c:	10000035 	stwio	zero,0(r2)
    IOWR_ALTERA_AVALON_UART_RXDATA(US_100_UART_BASE, 0x00);//
 2002010:	0005883a 	mov	r2,zero
 2002014:	10000035 	stwio	zero,0(r2)
  //  alt_irq_register(UART_0_IRQ,NULL,Uart_232_ISR);
    alt_ic_isr_register(US_100_UART_IRQ_INTERRUPT_CONTROLLER_ID,US_100_UART_IRQ,Uart_232_ISR,NULL,0x00);//
 2002018:	01808034 	movhi	r6,512
 200201c:	3187d104 	addi	r6,r6,8004
 2002020:	d8000015 	stw	zero,0(sp)
 2002024:	0009883a 	mov	r4,zero
 2002028:	01400104 	movi	r5,4
 200202c:	000f883a 	mov	r7,zero
 2002030:	200cd240 	call	200cd24 <alt_ic_isr_register>
}
 2002034:	e037883a 	mov	sp,fp
 2002038:	dfc00117 	ldw	ra,4(sp)
 200203c:	df000017 	ldw	fp,0(sp)
 2002040:	dec00204 	addi	sp,sp,8
 2002044:	f800283a 	ret

02002048 <sqrt>:
 2002048:	defff104 	addi	sp,sp,-60
 200204c:	dd000d15 	stw	r20,52(sp)
 2002050:	05008074 	movhi	r20,513
 2002054:	a5164804 	addi	r20,r20,22816
 2002058:	dcc00c15 	stw	r19,48(sp)
 200205c:	dc800b15 	stw	r18,44(sp)
 2002060:	dc400a15 	stw	r17,40(sp)
 2002064:	dc000915 	stw	r16,36(sp)
 2002068:	2025883a 	mov	r18,r4
 200206c:	dfc00e15 	stw	ra,56(sp)
 2002070:	2827883a 	mov	r19,r5
 2002074:	20021780 	call	2002178 <__ieee754_sqrt>
 2002078:	a1000017 	ldw	r4,0(r20)
 200207c:	1021883a 	mov	r16,r2
 2002080:	00bfffc4 	movi	r2,-1
 2002084:	1823883a 	mov	r17,r3
 2002088:	20800a26 	beq	r4,r2,20020b4 <sqrt+0x6c>
 200208c:	9009883a 	mov	r4,r18
 2002090:	980b883a 	mov	r5,r19
 2002094:	20024400 	call	2002440 <__isnand>
 2002098:	1000061e 	bne	r2,zero,20020b4 <sqrt+0x6c>
 200209c:	000d883a 	mov	r6,zero
 20020a0:	000f883a 	mov	r7,zero
 20020a4:	9009883a 	mov	r4,r18
 20020a8:	980b883a 	mov	r5,r19
 20020ac:	2003ff40 	call	2003ff4 <__ltdf2>
 20020b0:	10000a16 	blt	r2,zero,20020dc <sqrt+0x94>
 20020b4:	8005883a 	mov	r2,r16
 20020b8:	8807883a 	mov	r3,r17
 20020bc:	dfc00e17 	ldw	ra,56(sp)
 20020c0:	dd000d17 	ldw	r20,52(sp)
 20020c4:	dcc00c17 	ldw	r19,48(sp)
 20020c8:	dc800b17 	ldw	r18,44(sp)
 20020cc:	dc400a17 	ldw	r17,40(sp)
 20020d0:	dc000917 	ldw	r16,36(sp)
 20020d4:	dec00f04 	addi	sp,sp,60
 20020d8:	f800283a 	ret
 20020dc:	a4000017 	ldw	r16,0(r20)
 20020e0:	00800044 	movi	r2,1
 20020e4:	00c08074 	movhi	r3,513
 20020e8:	18ce0b04 	addi	r3,r3,14380
 20020ec:	d8800015 	stw	r2,0(sp)
 20020f0:	d8c00115 	stw	r3,4(sp)
 20020f4:	dcc00315 	stw	r19,12(sp)
 20020f8:	d8000815 	stw	zero,32(sp)
 20020fc:	dc800415 	stw	r18,16(sp)
 2002100:	dcc00515 	stw	r19,20(sp)
 2002104:	dc800215 	stw	r18,8(sp)
 2002108:	80000a1e 	bne	r16,zero,2002134 <sqrt+0xec>
 200210c:	d8000615 	stw	zero,24(sp)
 2002110:	d8000715 	stw	zero,28(sp)
 2002114:	d809883a 	mov	r4,sp
 2002118:	20024700 	call	2002470 <matherr>
 200211c:	10000e26 	beq	r2,zero,2002158 <sqrt+0x110>
 2002120:	d8800817 	ldw	r2,32(sp)
 2002124:	1000101e 	bne	r2,zero,2002168 <sqrt+0x120>
 2002128:	dc000617 	ldw	r16,24(sp)
 200212c:	dc400717 	ldw	r17,28(sp)
 2002130:	003fe006 	br	20020b4 <sqrt+0x6c>
 2002134:	0009883a 	mov	r4,zero
 2002138:	000d883a 	mov	r6,zero
 200213c:	000b883a 	mov	r5,zero
 2002140:	000f883a 	mov	r7,zero
 2002144:	2003d9c0 	call	2003d9c <__divdf3>
 2002148:	d8800615 	stw	r2,24(sp)
 200214c:	00800084 	movi	r2,2
 2002150:	d8c00715 	stw	r3,28(sp)
 2002154:	80bfef1e 	bne	r16,r2,2002114 <sqrt+0xcc>
 2002158:	2004f340 	call	2004f34 <__errno>
 200215c:	00c00844 	movi	r3,33
 2002160:	10c00015 	stw	r3,0(r2)
 2002164:	003fee06 	br	2002120 <sqrt+0xd8>
 2002168:	2004f340 	call	2004f34 <__errno>
 200216c:	d8c00817 	ldw	r3,32(sp)
 2002170:	10c00015 	stw	r3,0(r2)
 2002174:	003fec06 	br	2002128 <sqrt+0xe0>

02002178 <__ieee754_sqrt>:
 2002178:	defffd04 	addi	sp,sp,-12
 200217c:	dc000015 	stw	r16,0(sp)
 2002180:	009ffc34 	movhi	r2,32752
 2002184:	2021883a 	mov	r16,r4
 2002188:	291ffc2c 	andhi	r4,r5,32752
 200218c:	dc400115 	stw	r17,4(sp)
 2002190:	dfc00215 	stw	ra,8(sp)
 2002194:	2823883a 	mov	r17,r5
 2002198:	280f883a 	mov	r7,r5
 200219c:	2807883a 	mov	r3,r5
 20021a0:	8011883a 	mov	r8,r16
 20021a4:	20807d26 	beq	r4,r2,200239c <__ieee754_sqrt+0x224>
 20021a8:	01408d0e 	bge	zero,r5,20023e0 <__ieee754_sqrt+0x268>
 20021ac:	380dd53a 	srai	r6,r7,20
 20021b0:	3000131e 	bne	r6,zero,2002200 <__ieee754_sqrt+0x88>
 20021b4:	1800041e 	bne	r3,zero,20021c8 <__ieee754_sqrt+0x50>
 20021b8:	400ed2fa 	srli	r7,r8,11
 20021bc:	31bffac4 	addi	r6,r6,-21
 20021c0:	4010957a 	slli	r8,r8,21
 20021c4:	383ffc26 	beq	r7,zero,20021b8 <__ieee754_sqrt+0x40>
 20021c8:	3880042c 	andhi	r2,r7,16
 20021cc:	1000991e 	bne	r2,zero,2002434 <__ieee754_sqrt+0x2bc>
 20021d0:	0009883a 	mov	r4,zero
 20021d4:	39cf883a 	add	r7,r7,r7
 20021d8:	3880042c 	andhi	r2,r7,16
 20021dc:	21000044 	addi	r4,r4,1
 20021e0:	103ffc26 	beq	r2,zero,20021d4 <__ieee754_sqrt+0x5c>
 20021e4:	00800804 	movi	r2,32
 20021e8:	1105c83a 	sub	r2,r2,r4
 20021ec:	4086d83a 	srl	r3,r8,r2
 20021f0:	4110983a 	sll	r8,r8,r4
 20021f4:	3105c83a 	sub	r2,r6,r4
 20021f8:	38ceb03a 	or	r7,r7,r3
 20021fc:	11800044 	addi	r6,r2,1
 2002200:	31bf0044 	addi	r6,r6,-1023
 2002204:	30c0004c 	andi	r3,r6,1
 2002208:	00800434 	movhi	r2,16
 200220c:	10bfffc4 	addi	r2,r2,-1
 2002210:	3884703a 	and	r2,r7,r2
 2002214:	1807003a 	cmpeq	r3,r3,zero
 2002218:	11000434 	orhi	r4,r2,16
 200221c:	18005426 	beq	r3,zero,2002370 <__ieee754_sqrt+0x1f8>
 2002220:	4004d7fa 	srli	r2,r8,31
 2002224:	4207883a 	add	r3,r8,r8
 2002228:	02800834 	movhi	r10,32
 200222c:	1105883a 	add	r2,r2,r4
 2002230:	2089883a 	add	r4,r4,r2
 2002234:	0011883a 	mov	r8,zero
 2002238:	000b883a 	mov	r5,zero
 200223c:	0013883a 	mov	r9,zero
 2002240:	02c00584 	movi	r11,22
 2002244:	520f883a 	add	r7,r10,r8
 2002248:	1804d7fa 	srli	r2,r3,31
 200224c:	4a400044 	addi	r9,r9,1
 2002250:	18c7883a 	add	r3,r3,r3
 2002254:	21c00316 	blt	r4,r7,2002264 <__ieee754_sqrt+0xec>
 2002258:	21c9c83a 	sub	r4,r4,r7
 200225c:	2a8b883a 	add	r5,r5,r10
 2002260:	51d1883a 	add	r8,r10,r7
 2002264:	1105883a 	add	r2,r2,r4
 2002268:	5014d07a 	srli	r10,r10,1
 200226c:	2089883a 	add	r4,r4,r2
 2002270:	4afff41e 	bne	r9,r11,2002244 <__ieee754_sqrt+0xcc>
 2002274:	02600034 	movhi	r9,32768
 2002278:	0017883a 	mov	r11,zero
 200227c:	0019883a 	mov	r12,zero
 2002280:	0015883a 	mov	r10,zero
 2002284:	4821883a 	mov	r16,r9
 2002288:	03c00804 	movi	r15,32
 200228c:	00000806 	br	20022b0 <__ieee754_sqrt+0x138>
 2002290:	22003426 	beq	r4,r8,2002364 <__ieee754_sqrt+0x1ec>
 2002294:	1804d7fa 	srli	r2,r3,31
 2002298:	52800044 	addi	r10,r10,1
 200229c:	18c7883a 	add	r3,r3,r3
 20022a0:	1105883a 	add	r2,r2,r4
 20022a4:	2089883a 	add	r4,r4,r2
 20022a8:	4812d07a 	srli	r9,r9,1
 20022ac:	53c01326 	beq	r10,r15,20022fc <__ieee754_sqrt+0x184>
 20022b0:	4acf883a 	add	r7,r9,r11
 20022b4:	413ff60e 	bge	r8,r4,2002290 <__ieee754_sqrt+0x118>
 20022b8:	38a0002c 	andhi	r2,r7,32768
 20022bc:	3a57883a 	add	r11,r7,r9
 20022c0:	14002426 	beq	r2,r16,2002354 <__ieee754_sqrt+0x1dc>
 20022c4:	4005883a 	mov	r2,r8
 20022c8:	2209c83a 	sub	r4,r4,r8
 20022cc:	19c0012e 	bgeu	r3,r7,20022d4 <__ieee754_sqrt+0x15c>
 20022d0:	213fffc4 	addi	r4,r4,-1
 20022d4:	19c7c83a 	sub	r3,r3,r7
 20022d8:	1011883a 	mov	r8,r2
 20022dc:	1804d7fa 	srli	r2,r3,31
 20022e0:	52800044 	addi	r10,r10,1
 20022e4:	6259883a 	add	r12,r12,r9
 20022e8:	1105883a 	add	r2,r2,r4
 20022ec:	18c7883a 	add	r3,r3,r3
 20022f0:	2089883a 	add	r4,r4,r2
 20022f4:	4812d07a 	srli	r9,r9,1
 20022f8:	53ffed1e 	bne	r10,r15,20022b0 <__ieee754_sqrt+0x138>
 20022fc:	20c4b03a 	or	r2,r4,r3
 2002300:	1000201e 	bne	r2,zero,2002384 <__ieee754_sqrt+0x20c>
 2002304:	600ed07a 	srli	r7,r12,1
 2002308:	2880004c 	andi	r2,r5,1
 200230c:	1005003a 	cmpeq	r2,r2,zero
 2002310:	1000011e 	bne	r2,zero,2002318 <__ieee754_sqrt+0x1a0>
 2002314:	39e00034 	orhi	r7,r7,32768
 2002318:	300dd07a 	srai	r6,r6,1
 200231c:	280bd07a 	srai	r5,r5,1
 2002320:	010ff834 	movhi	r4,16352
 2002324:	300c953a 	slli	r6,r6,20
 2002328:	290b883a 	add	r5,r5,r4
 200232c:	3821883a 	mov	r16,r7
 2002330:	299d883a 	add	r14,r5,r6
 2002334:	7023883a 	mov	r17,r14
 2002338:	8005883a 	mov	r2,r16
 200233c:	8807883a 	mov	r3,r17
 2002340:	dfc00217 	ldw	ra,8(sp)
 2002344:	dc400117 	ldw	r17,4(sp)
 2002348:	dc000017 	ldw	r16,0(sp)
 200234c:	dec00304 	addi	sp,sp,12
 2002350:	f800283a 	ret
 2002354:	5884703a 	and	r2,r11,r2
 2002358:	103fda1e 	bne	r2,zero,20022c4 <__ieee754_sqrt+0x14c>
 200235c:	40800044 	addi	r2,r8,1
 2002360:	003fd906 	br	20022c8 <__ieee754_sqrt+0x150>
 2002364:	19ffd42e 	bgeu	r3,r7,20022b8 <__ieee754_sqrt+0x140>
 2002368:	2011883a 	mov	r8,r4
 200236c:	003fc906 	br	2002294 <__ieee754_sqrt+0x11c>
 2002370:	4004d7fa 	srli	r2,r8,31
 2002374:	4211883a 	add	r8,r8,r8
 2002378:	1105883a 	add	r2,r2,r4
 200237c:	2089883a 	add	r4,r4,r2
 2002380:	003fa706 	br	2002220 <__ieee754_sqrt+0xa8>
 2002384:	00bfffc4 	movi	r2,-1
 2002388:	60802726 	beq	r12,r2,2002428 <__ieee754_sqrt+0x2b0>
 200238c:	6080004c 	andi	r2,r12,1
 2002390:	6085883a 	add	r2,r12,r2
 2002394:	100ed07a 	srli	r7,r2,1
 2002398:	003fdb06 	br	2002308 <__ieee754_sqrt+0x190>
 200239c:	8009883a 	mov	r4,r16
 20023a0:	800d883a 	mov	r6,r16
 20023a4:	20039d80 	call	20039d8 <__muldf3>
 20023a8:	180f883a 	mov	r7,r3
 20023ac:	880b883a 	mov	r5,r17
 20023b0:	8009883a 	mov	r4,r16
 20023b4:	100d883a 	mov	r6,r2
 20023b8:	20039640 	call	2003964 <__adddf3>
 20023bc:	1021883a 	mov	r16,r2
 20023c0:	1823883a 	mov	r17,r3
 20023c4:	8005883a 	mov	r2,r16
 20023c8:	8807883a 	mov	r3,r17
 20023cc:	dfc00217 	ldw	ra,8(sp)
 20023d0:	dc400117 	ldw	r17,4(sp)
 20023d4:	dc000017 	ldw	r16,0(sp)
 20023d8:	dec00304 	addi	sp,sp,12
 20023dc:	f800283a 	ret
 20023e0:	00a00034 	movhi	r2,32768
 20023e4:	10bfffc4 	addi	r2,r2,-1
 20023e8:	2884703a 	and	r2,r5,r2
 20023ec:	8084b03a 	or	r2,r16,r2
 20023f0:	103fd126 	beq	r2,zero,2002338 <__ieee754_sqrt+0x1c0>
 20023f4:	283f6d26 	beq	r5,zero,20021ac <__ieee754_sqrt+0x34>
 20023f8:	280f883a 	mov	r7,r5
 20023fc:	8009883a 	mov	r4,r16
 2002400:	800d883a 	mov	r6,r16
 2002404:	20038e40 	call	20038e4 <__subdf3>
 2002408:	1009883a 	mov	r4,r2
 200240c:	180b883a 	mov	r5,r3
 2002410:	100d883a 	mov	r6,r2
 2002414:	180f883a 	mov	r7,r3
 2002418:	2003d9c0 	call	2003d9c <__divdf3>
 200241c:	1021883a 	mov	r16,r2
 2002420:	1823883a 	mov	r17,r3
 2002424:	003fc406 	br	2002338 <__ieee754_sqrt+0x1c0>
 2002428:	29400044 	addi	r5,r5,1
 200242c:	000f883a 	mov	r7,zero
 2002430:	003fb506 	br	2002308 <__ieee754_sqrt+0x190>
 2002434:	0009883a 	mov	r4,zero
 2002438:	00800804 	movi	r2,32
 200243c:	003f6b06 	br	20021ec <__ieee754_sqrt+0x74>

02002440 <__isnand>:
 2002440:	200d883a 	mov	r6,r4
 2002444:	0109c83a 	sub	r4,zero,r4
 2002448:	2188b03a 	or	r4,r4,r6
 200244c:	2008d7fa 	srli	r4,r4,31
 2002450:	00a00034 	movhi	r2,32768
 2002454:	10bfffc4 	addi	r2,r2,-1
 2002458:	1144703a 	and	r2,r2,r5
 200245c:	2088b03a 	or	r4,r4,r2
 2002460:	009ffc34 	movhi	r2,32752
 2002464:	1105c83a 	sub	r2,r2,r4
 2002468:	1004d7fa 	srli	r2,r2,31
 200246c:	f800283a 	ret

02002470 <matherr>:
 2002470:	0005883a 	mov	r2,zero
 2002474:	f800283a 	ret

02002478 <__fixunsdfdi>:
 2002478:	0005883a 	mov	r2,zero
 200247c:	00cf7c34 	movhi	r3,15856
 2002480:	defffb04 	addi	sp,sp,-20
 2002484:	180f883a 	mov	r7,r3
 2002488:	100d883a 	mov	r6,r2
 200248c:	dfc00415 	stw	ra,16(sp)
 2002490:	dcc00315 	stw	r19,12(sp)
 2002494:	dc800215 	stw	r18,8(sp)
 2002498:	dc400115 	stw	r17,4(sp)
 200249c:	dc000015 	stw	r16,0(sp)
 20024a0:	2823883a 	mov	r17,r5
 20024a4:	2021883a 	mov	r16,r4
 20024a8:	20039d80 	call	20039d8 <__muldf3>
 20024ac:	180b883a 	mov	r5,r3
 20024b0:	1009883a 	mov	r4,r2
 20024b4:	20045f80 	call	20045f8 <__fixunsdfsi>
 20024b8:	1009883a 	mov	r4,r2
 20024bc:	1027883a 	mov	r19,r2
 20024c0:	20042000 	call	2004200 <__floatunsidf>
 20024c4:	0011883a 	mov	r8,zero
 20024c8:	02707c34 	movhi	r9,49648
 20024cc:	480f883a 	mov	r7,r9
 20024d0:	400d883a 	mov	r6,r8
 20024d4:	180b883a 	mov	r5,r3
 20024d8:	1009883a 	mov	r4,r2
 20024dc:	20039d80 	call	20039d8 <__muldf3>
 20024e0:	180f883a 	mov	r7,r3
 20024e4:	880b883a 	mov	r5,r17
 20024e8:	8009883a 	mov	r4,r16
 20024ec:	100d883a 	mov	r6,r2
 20024f0:	20039640 	call	2003964 <__adddf3>
 20024f4:	180b883a 	mov	r5,r3
 20024f8:	1009883a 	mov	r4,r2
 20024fc:	20045f80 	call	20045f8 <__fixunsdfsi>
 2002500:	0025883a 	mov	r18,zero
 2002504:	000f883a 	mov	r7,zero
 2002508:	9088b03a 	or	r4,r18,r2
 200250c:	99cab03a 	or	r5,r19,r7
 2002510:	2005883a 	mov	r2,r4
 2002514:	2807883a 	mov	r3,r5
 2002518:	dfc00417 	ldw	ra,16(sp)
 200251c:	dcc00317 	ldw	r19,12(sp)
 2002520:	dc800217 	ldw	r18,8(sp)
 2002524:	dc400117 	ldw	r17,4(sp)
 2002528:	dc000017 	ldw	r16,0(sp)
 200252c:	dec00504 	addi	sp,sp,20
 2002530:	f800283a 	ret

02002534 <__floatundidf>:
 2002534:	defffb04 	addi	sp,sp,-20
 2002538:	dc800215 	stw	r18,8(sp)
 200253c:	2025883a 	mov	r18,r4
 2002540:	2809883a 	mov	r4,r5
 2002544:	dfc00415 	stw	ra,16(sp)
 2002548:	dc400115 	stw	r17,4(sp)
 200254c:	dc000015 	stw	r16,0(sp)
 2002550:	dcc00315 	stw	r19,12(sp)
 2002554:	20042000 	call	2004200 <__floatunsidf>
 2002558:	100d883a 	mov	r6,r2
 200255c:	180f883a 	mov	r7,r3
 2002560:	0005883a 	mov	r2,zero
 2002564:	00d07c34 	movhi	r3,16880
 2002568:	380b883a 	mov	r5,r7
 200256c:	3009883a 	mov	r4,r6
 2002570:	180f883a 	mov	r7,r3
 2002574:	100d883a 	mov	r6,r2
 2002578:	20039d80 	call	20039d8 <__muldf3>
 200257c:	9009883a 	mov	r4,r18
 2002580:	1021883a 	mov	r16,r2
 2002584:	1823883a 	mov	r17,r3
 2002588:	20042000 	call	2004200 <__floatunsidf>
 200258c:	880b883a 	mov	r5,r17
 2002590:	8009883a 	mov	r4,r16
 2002594:	180f883a 	mov	r7,r3
 2002598:	100d883a 	mov	r6,r2
 200259c:	20039640 	call	2003964 <__adddf3>
 20025a0:	dfc00417 	ldw	ra,16(sp)
 20025a4:	dcc00317 	ldw	r19,12(sp)
 20025a8:	dc800217 	ldw	r18,8(sp)
 20025ac:	dc400117 	ldw	r17,4(sp)
 20025b0:	dc000017 	ldw	r16,0(sp)
 20025b4:	dec00504 	addi	sp,sp,20
 20025b8:	f800283a 	ret

020025bc <__udivdi3>:
 20025bc:	defff004 	addi	sp,sp,-64
 20025c0:	2005883a 	mov	r2,r4
 20025c4:	3011883a 	mov	r8,r6
 20025c8:	df000e15 	stw	fp,56(sp)
 20025cc:	dd000a15 	stw	r20,40(sp)
 20025d0:	dc000615 	stw	r16,24(sp)
 20025d4:	dfc00f15 	stw	ra,60(sp)
 20025d8:	ddc00d15 	stw	r23,52(sp)
 20025dc:	dd800c15 	stw	r22,48(sp)
 20025e0:	dd400b15 	stw	r21,44(sp)
 20025e4:	dcc00915 	stw	r19,36(sp)
 20025e8:	dc800815 	stw	r18,32(sp)
 20025ec:	dc400715 	stw	r17,28(sp)
 20025f0:	4021883a 	mov	r16,r8
 20025f4:	1039883a 	mov	fp,r2
 20025f8:	2829883a 	mov	r20,r5
 20025fc:	38003b1e 	bne	r7,zero,20026ec <__udivdi3+0x130>
 2002600:	2a005c36 	bltu	r5,r8,2002774 <__udivdi3+0x1b8>
 2002604:	4000a626 	beq	r8,zero,20028a0 <__udivdi3+0x2e4>
 2002608:	00bfffd4 	movui	r2,65535
 200260c:	14009e36 	bltu	r2,r16,2002888 <__udivdi3+0x2cc>
 2002610:	00803fc4 	movi	r2,255
 2002614:	14013d36 	bltu	r2,r16,2002b0c <__udivdi3+0x550>
 2002618:	000b883a 	mov	r5,zero
 200261c:	0005883a 	mov	r2,zero
 2002620:	8084d83a 	srl	r2,r16,r2
 2002624:	01008074 	movhi	r4,513
 2002628:	210e1604 	addi	r4,r4,14424
 200262c:	01800804 	movi	r6,32
 2002630:	1105883a 	add	r2,r2,r4
 2002634:	10c00003 	ldbu	r3,0(r2)
 2002638:	28c7883a 	add	r3,r5,r3
 200263c:	30edc83a 	sub	r22,r6,r3
 2002640:	b000ee1e 	bne	r22,zero,20029fc <__udivdi3+0x440>
 2002644:	802ad43a 	srli	r21,r16,16
 2002648:	00800044 	movi	r2,1
 200264c:	a423c83a 	sub	r17,r20,r16
 2002650:	85ffffcc 	andi	r23,r16,65535
 2002654:	d8800315 	stw	r2,12(sp)
 2002658:	8809883a 	mov	r4,r17
 200265c:	a80b883a 	mov	r5,r21
 2002660:	20044d00 	call	20044d0 <__udivsi3>
 2002664:	8809883a 	mov	r4,r17
 2002668:	a80b883a 	mov	r5,r21
 200266c:	102d883a 	mov	r22,r2
 2002670:	20044d80 	call	20044d8 <__umodsi3>
 2002674:	1004943a 	slli	r2,r2,16
 2002678:	e006d43a 	srli	r3,fp,16
 200267c:	bda3383a 	mul	r17,r23,r22
 2002680:	10c4b03a 	or	r2,r2,r3
 2002684:	1440042e 	bgeu	r2,r17,2002698 <__udivdi3+0xdc>
 2002688:	1405883a 	add	r2,r2,r16
 200268c:	b5bfffc4 	addi	r22,r22,-1
 2002690:	14000136 	bltu	r2,r16,2002698 <__udivdi3+0xdc>
 2002694:	14413d36 	bltu	r2,r17,2002b8c <__udivdi3+0x5d0>
 2002698:	1463c83a 	sub	r17,r2,r17
 200269c:	8809883a 	mov	r4,r17
 20026a0:	a80b883a 	mov	r5,r21
 20026a4:	20044d00 	call	20044d0 <__udivsi3>
 20026a8:	8809883a 	mov	r4,r17
 20026ac:	a80b883a 	mov	r5,r21
 20026b0:	1029883a 	mov	r20,r2
 20026b4:	20044d80 	call	20044d8 <__umodsi3>
 20026b8:	1004943a 	slli	r2,r2,16
 20026bc:	bd09383a 	mul	r4,r23,r20
 20026c0:	e0ffffcc 	andi	r3,fp,65535
 20026c4:	10c4b03a 	or	r2,r2,r3
 20026c8:	1100042e 	bgeu	r2,r4,20026dc <__udivdi3+0x120>
 20026cc:	8085883a 	add	r2,r16,r2
 20026d0:	a53fffc4 	addi	r20,r20,-1
 20026d4:	14000136 	bltu	r2,r16,20026dc <__udivdi3+0x120>
 20026d8:	11012036 	bltu	r2,r4,2002b5c <__udivdi3+0x5a0>
 20026dc:	b004943a 	slli	r2,r22,16
 20026e0:	d9000317 	ldw	r4,12(sp)
 20026e4:	a084b03a 	or	r2,r20,r2
 20026e8:	00001506 	br	2002740 <__udivdi3+0x184>
 20026ec:	380d883a 	mov	r6,r7
 20026f0:	29c06236 	bltu	r5,r7,200287c <__udivdi3+0x2c0>
 20026f4:	00bfffd4 	movui	r2,65535
 20026f8:	11c05a36 	bltu	r2,r7,2002864 <__udivdi3+0x2a8>
 20026fc:	00803fc4 	movi	r2,255
 2002700:	11c0fc36 	bltu	r2,r7,2002af4 <__udivdi3+0x538>
 2002704:	000b883a 	mov	r5,zero
 2002708:	0005883a 	mov	r2,zero
 200270c:	3084d83a 	srl	r2,r6,r2
 2002710:	01008074 	movhi	r4,513
 2002714:	210e1604 	addi	r4,r4,14424
 2002718:	01c00804 	movi	r7,32
 200271c:	1105883a 	add	r2,r2,r4
 2002720:	10c00003 	ldbu	r3,0(r2)
 2002724:	28c7883a 	add	r3,r5,r3
 2002728:	38efc83a 	sub	r23,r7,r3
 200272c:	b800691e 	bne	r23,zero,20028d4 <__udivdi3+0x318>
 2002730:	35000136 	bltu	r6,r20,2002738 <__udivdi3+0x17c>
 2002734:	e4005136 	bltu	fp,r16,200287c <__udivdi3+0x2c0>
 2002738:	00800044 	movi	r2,1
 200273c:	0009883a 	mov	r4,zero
 2002740:	2007883a 	mov	r3,r4
 2002744:	dfc00f17 	ldw	ra,60(sp)
 2002748:	df000e17 	ldw	fp,56(sp)
 200274c:	ddc00d17 	ldw	r23,52(sp)
 2002750:	dd800c17 	ldw	r22,48(sp)
 2002754:	dd400b17 	ldw	r21,44(sp)
 2002758:	dd000a17 	ldw	r20,40(sp)
 200275c:	dcc00917 	ldw	r19,36(sp)
 2002760:	dc800817 	ldw	r18,32(sp)
 2002764:	dc400717 	ldw	r17,28(sp)
 2002768:	dc000617 	ldw	r16,24(sp)
 200276c:	dec01004 	addi	sp,sp,64
 2002770:	f800283a 	ret
 2002774:	00bfffd4 	movui	r2,65535
 2002778:	12005036 	bltu	r2,r8,20028bc <__udivdi3+0x300>
 200277c:	00803fc4 	movi	r2,255
 2002780:	1200e836 	bltu	r2,r8,2002b24 <__udivdi3+0x568>
 2002784:	000b883a 	mov	r5,zero
 2002788:	0005883a 	mov	r2,zero
 200278c:	8084d83a 	srl	r2,r16,r2
 2002790:	01008074 	movhi	r4,513
 2002794:	210e1604 	addi	r4,r4,14424
 2002798:	01800804 	movi	r6,32
 200279c:	1105883a 	add	r2,r2,r4
 20027a0:	10c00003 	ldbu	r3,0(r2)
 20027a4:	28c7883a 	add	r3,r5,r3
 20027a8:	30cbc83a 	sub	r5,r6,r3
 20027ac:	28000626 	beq	r5,zero,20027c8 <__udivdi3+0x20c>
 20027b0:	3145c83a 	sub	r2,r6,r5
 20027b4:	e084d83a 	srl	r2,fp,r2
 20027b8:	a146983a 	sll	r3,r20,r5
 20027bc:	e178983a 	sll	fp,fp,r5
 20027c0:	8160983a 	sll	r16,r16,r5
 20027c4:	18a8b03a 	or	r20,r3,r2
 20027c8:	802ad43a 	srli	r21,r16,16
 20027cc:	a009883a 	mov	r4,r20
 20027d0:	85ffffcc 	andi	r23,r16,65535
 20027d4:	a80b883a 	mov	r5,r21
 20027d8:	20044d00 	call	20044d0 <__udivsi3>
 20027dc:	a009883a 	mov	r4,r20
 20027e0:	a80b883a 	mov	r5,r21
 20027e4:	102d883a 	mov	r22,r2
 20027e8:	20044d80 	call	20044d8 <__umodsi3>
 20027ec:	1004943a 	slli	r2,r2,16
 20027f0:	e006d43a 	srli	r3,fp,16
 20027f4:	bda3383a 	mul	r17,r23,r22
 20027f8:	10c4b03a 	or	r2,r2,r3
 20027fc:	1440042e 	bgeu	r2,r17,2002810 <__udivdi3+0x254>
 2002800:	1405883a 	add	r2,r2,r16
 2002804:	b5bfffc4 	addi	r22,r22,-1
 2002808:	14000136 	bltu	r2,r16,2002810 <__udivdi3+0x254>
 200280c:	1440d536 	bltu	r2,r17,2002b64 <__udivdi3+0x5a8>
 2002810:	1463c83a 	sub	r17,r2,r17
 2002814:	8809883a 	mov	r4,r17
 2002818:	a80b883a 	mov	r5,r21
 200281c:	20044d00 	call	20044d0 <__udivsi3>
 2002820:	8809883a 	mov	r4,r17
 2002824:	a80b883a 	mov	r5,r21
 2002828:	1029883a 	mov	r20,r2
 200282c:	20044d80 	call	20044d8 <__umodsi3>
 2002830:	1004943a 	slli	r2,r2,16
 2002834:	bd09383a 	mul	r4,r23,r20
 2002838:	e0ffffcc 	andi	r3,fp,65535
 200283c:	10c4b03a 	or	r2,r2,r3
 2002840:	1100042e 	bgeu	r2,r4,2002854 <__udivdi3+0x298>
 2002844:	8085883a 	add	r2,r16,r2
 2002848:	a53fffc4 	addi	r20,r20,-1
 200284c:	14000136 	bltu	r2,r16,2002854 <__udivdi3+0x298>
 2002850:	1100c736 	bltu	r2,r4,2002b70 <__udivdi3+0x5b4>
 2002854:	b004943a 	slli	r2,r22,16
 2002858:	0009883a 	mov	r4,zero
 200285c:	a084b03a 	or	r2,r20,r2
 2002860:	003fb706 	br	2002740 <__udivdi3+0x184>
 2002864:	00804034 	movhi	r2,256
 2002868:	10bfffc4 	addi	r2,r2,-1
 200286c:	11c0a436 	bltu	r2,r7,2002b00 <__udivdi3+0x544>
 2002870:	01400404 	movi	r5,16
 2002874:	2805883a 	mov	r2,r5
 2002878:	003fa406 	br	200270c <__udivdi3+0x150>
 200287c:	0005883a 	mov	r2,zero
 2002880:	0009883a 	mov	r4,zero
 2002884:	003fae06 	br	2002740 <__udivdi3+0x184>
 2002888:	00804034 	movhi	r2,256
 200288c:	10bfffc4 	addi	r2,r2,-1
 2002890:	1400a136 	bltu	r2,r16,2002b18 <__udivdi3+0x55c>
 2002894:	01400404 	movi	r5,16
 2002898:	2805883a 	mov	r2,r5
 200289c:	003f6006 	br	2002620 <__udivdi3+0x64>
 20028a0:	01000044 	movi	r4,1
 20028a4:	000b883a 	mov	r5,zero
 20028a8:	20044d00 	call	20044d0 <__udivsi3>
 20028ac:	1021883a 	mov	r16,r2
 20028b0:	00bfffd4 	movui	r2,65535
 20028b4:	143ff436 	bltu	r2,r16,2002888 <__udivdi3+0x2cc>
 20028b8:	003f5506 	br	2002610 <__udivdi3+0x54>
 20028bc:	00804034 	movhi	r2,256
 20028c0:	10bfffc4 	addi	r2,r2,-1
 20028c4:	12009a36 	bltu	r2,r8,2002b30 <__udivdi3+0x574>
 20028c8:	01400404 	movi	r5,16
 20028cc:	2805883a 	mov	r2,r5
 20028d0:	003fae06 	br	200278c <__udivdi3+0x1d0>
 20028d4:	3dc5c83a 	sub	r2,r7,r23
 20028d8:	35c8983a 	sll	r4,r6,r23
 20028dc:	8086d83a 	srl	r3,r16,r2
 20028e0:	a0a2d83a 	srl	r17,r20,r2
 20028e4:	e084d83a 	srl	r2,fp,r2
 20028e8:	20eab03a 	or	r21,r4,r3
 20028ec:	a82cd43a 	srli	r22,r21,16
 20028f0:	a5c6983a 	sll	r3,r20,r23
 20028f4:	8809883a 	mov	r4,r17
 20028f8:	b00b883a 	mov	r5,r22
 20028fc:	1886b03a 	or	r3,r3,r2
 2002900:	d8c00215 	stw	r3,8(sp)
 2002904:	20044d00 	call	20044d0 <__udivsi3>
 2002908:	8809883a 	mov	r4,r17
 200290c:	b00b883a 	mov	r5,r22
 2002910:	1029883a 	mov	r20,r2
 2002914:	20044d80 	call	20044d8 <__umodsi3>
 2002918:	a8ffffcc 	andi	r3,r21,65535
 200291c:	d8c00515 	stw	r3,20(sp)
 2002920:	d9000217 	ldw	r4,8(sp)
 2002924:	d9400517 	ldw	r5,20(sp)
 2002928:	1004943a 	slli	r2,r2,16
 200292c:	2006d43a 	srli	r3,r4,16
 2002930:	85e0983a 	sll	r16,r16,r23
 2002934:	2d23383a 	mul	r17,r5,r20
 2002938:	10c4b03a 	or	r2,r2,r3
 200293c:	dc000015 	stw	r16,0(sp)
 2002940:	1440032e 	bgeu	r2,r17,2002950 <__udivdi3+0x394>
 2002944:	1545883a 	add	r2,r2,r21
 2002948:	a53fffc4 	addi	r20,r20,-1
 200294c:	15407f2e 	bgeu	r2,r21,2002b4c <__udivdi3+0x590>
 2002950:	1463c83a 	sub	r17,r2,r17
 2002954:	8809883a 	mov	r4,r17
 2002958:	b00b883a 	mov	r5,r22
 200295c:	20044d00 	call	20044d0 <__udivsi3>
 2002960:	8809883a 	mov	r4,r17
 2002964:	b00b883a 	mov	r5,r22
 2002968:	1021883a 	mov	r16,r2
 200296c:	20044d80 	call	20044d8 <__umodsi3>
 2002970:	d8c00517 	ldw	r3,20(sp)
 2002974:	d9000217 	ldw	r4,8(sp)
 2002978:	1004943a 	slli	r2,r2,16
 200297c:	1c0f383a 	mul	r7,r3,r16
 2002980:	20ffffcc 	andi	r3,r4,65535
 2002984:	10e2b03a 	or	r17,r2,r3
 2002988:	89c0032e 	bgeu	r17,r7,2002998 <__udivdi3+0x3dc>
 200298c:	8d63883a 	add	r17,r17,r21
 2002990:	843fffc4 	addi	r16,r16,-1
 2002994:	8d40692e 	bgeu	r17,r21,2002b3c <__udivdi3+0x580>
 2002998:	a008943a 	slli	r4,r20,16
 200299c:	d9400017 	ldw	r5,0(sp)
 20029a0:	89e3c83a 	sub	r17,r17,r7
 20029a4:	8110b03a 	or	r8,r16,r4
 20029a8:	280cd43a 	srli	r6,r5,16
 20029ac:	28ffffcc 	andi	r3,r5,65535
 20029b0:	40bfffcc 	andi	r2,r8,65535
 20029b4:	400ad43a 	srli	r5,r8,16
 20029b8:	10d3383a 	mul	r9,r2,r3
 20029bc:	1185383a 	mul	r2,r2,r6
 20029c0:	28c7383a 	mul	r3,r5,r3
 20029c4:	4808d43a 	srli	r4,r9,16
 20029c8:	298b383a 	mul	r5,r5,r6
 20029cc:	10c5883a 	add	r2,r2,r3
 20029d0:	2089883a 	add	r4,r4,r2
 20029d4:	20c0022e 	bgeu	r4,r3,20029e0 <__udivdi3+0x424>
 20029d8:	00800074 	movhi	r2,1
 20029dc:	288b883a 	add	r5,r5,r2
 20029e0:	2004d43a 	srli	r2,r4,16
 20029e4:	288b883a 	add	r5,r5,r2
 20029e8:	89403f36 	bltu	r17,r5,2002ae8 <__udivdi3+0x52c>
 20029ec:	89403926 	beq	r17,r5,2002ad4 <__udivdi3+0x518>
 20029f0:	4005883a 	mov	r2,r8
 20029f4:	0009883a 	mov	r4,zero
 20029f8:	003f5106 	br	2002740 <__udivdi3+0x184>
 20029fc:	85a0983a 	sll	r16,r16,r22
 2002a00:	3585c83a 	sub	r2,r6,r22
 2002a04:	a0a2d83a 	srl	r17,r20,r2
 2002a08:	802ad43a 	srli	r21,r16,16
 2002a0c:	e084d83a 	srl	r2,fp,r2
 2002a10:	a586983a 	sll	r3,r20,r22
 2002a14:	8809883a 	mov	r4,r17
 2002a18:	a80b883a 	mov	r5,r21
 2002a1c:	1886b03a 	or	r3,r3,r2
 2002a20:	d8c00115 	stw	r3,4(sp)
 2002a24:	20044d00 	call	20044d0 <__udivsi3>
 2002a28:	8809883a 	mov	r4,r17
 2002a2c:	a80b883a 	mov	r5,r21
 2002a30:	d8800415 	stw	r2,16(sp)
 2002a34:	20044d80 	call	20044d8 <__umodsi3>
 2002a38:	d9000117 	ldw	r4,4(sp)
 2002a3c:	d9400417 	ldw	r5,16(sp)
 2002a40:	1004943a 	slli	r2,r2,16
 2002a44:	85ffffcc 	andi	r23,r16,65535
 2002a48:	2006d43a 	srli	r3,r4,16
 2002a4c:	b963383a 	mul	r17,r23,r5
 2002a50:	10c4b03a 	or	r2,r2,r3
 2002a54:	1440042e 	bgeu	r2,r17,2002a68 <__udivdi3+0x4ac>
 2002a58:	297fffc4 	addi	r5,r5,-1
 2002a5c:	1405883a 	add	r2,r2,r16
 2002a60:	d9400415 	stw	r5,16(sp)
 2002a64:	1400442e 	bgeu	r2,r16,2002b78 <__udivdi3+0x5bc>
 2002a68:	1463c83a 	sub	r17,r2,r17
 2002a6c:	8809883a 	mov	r4,r17
 2002a70:	a80b883a 	mov	r5,r21
 2002a74:	20044d00 	call	20044d0 <__udivsi3>
 2002a78:	8809883a 	mov	r4,r17
 2002a7c:	a80b883a 	mov	r5,r21
 2002a80:	1029883a 	mov	r20,r2
 2002a84:	20044d80 	call	20044d8 <__umodsi3>
 2002a88:	d9400117 	ldw	r5,4(sp)
 2002a8c:	1004943a 	slli	r2,r2,16
 2002a90:	bd09383a 	mul	r4,r23,r20
 2002a94:	28ffffcc 	andi	r3,r5,65535
 2002a98:	10c6b03a 	or	r3,r2,r3
 2002a9c:	1900062e 	bgeu	r3,r4,2002ab8 <__udivdi3+0x4fc>
 2002aa0:	1c07883a 	add	r3,r3,r16
 2002aa4:	a53fffc4 	addi	r20,r20,-1
 2002aa8:	1c000336 	bltu	r3,r16,2002ab8 <__udivdi3+0x4fc>
 2002aac:	1900022e 	bgeu	r3,r4,2002ab8 <__udivdi3+0x4fc>
 2002ab0:	a53fffc4 	addi	r20,r20,-1
 2002ab4:	1c07883a 	add	r3,r3,r16
 2002ab8:	d9400417 	ldw	r5,16(sp)
 2002abc:	e5b8983a 	sll	fp,fp,r22
 2002ac0:	1923c83a 	sub	r17,r3,r4
 2002ac4:	2804943a 	slli	r2,r5,16
 2002ac8:	a0a8b03a 	or	r20,r20,r2
 2002acc:	dd000315 	stw	r20,12(sp)
 2002ad0:	003ee106 	br	2002658 <__udivdi3+0x9c>
 2002ad4:	2004943a 	slli	r2,r4,16
 2002ad8:	e5c8983a 	sll	r4,fp,r23
 2002adc:	48ffffcc 	andi	r3,r9,65535
 2002ae0:	10c5883a 	add	r2,r2,r3
 2002ae4:	20bfc22e 	bgeu	r4,r2,20029f0 <__udivdi3+0x434>
 2002ae8:	40bfffc4 	addi	r2,r8,-1
 2002aec:	0009883a 	mov	r4,zero
 2002af0:	003f1306 	br	2002740 <__udivdi3+0x184>
 2002af4:	01400204 	movi	r5,8
 2002af8:	2805883a 	mov	r2,r5
 2002afc:	003f0306 	br	200270c <__udivdi3+0x150>
 2002b00:	01400604 	movi	r5,24
 2002b04:	2805883a 	mov	r2,r5
 2002b08:	003f0006 	br	200270c <__udivdi3+0x150>
 2002b0c:	01400204 	movi	r5,8
 2002b10:	2805883a 	mov	r2,r5
 2002b14:	003ec206 	br	2002620 <__udivdi3+0x64>
 2002b18:	01400604 	movi	r5,24
 2002b1c:	2805883a 	mov	r2,r5
 2002b20:	003ebf06 	br	2002620 <__udivdi3+0x64>
 2002b24:	01400204 	movi	r5,8
 2002b28:	2805883a 	mov	r2,r5
 2002b2c:	003f1706 	br	200278c <__udivdi3+0x1d0>
 2002b30:	01400604 	movi	r5,24
 2002b34:	2805883a 	mov	r2,r5
 2002b38:	003f1406 	br	200278c <__udivdi3+0x1d0>
 2002b3c:	89ff962e 	bgeu	r17,r7,2002998 <__udivdi3+0x3dc>
 2002b40:	8d63883a 	add	r17,r17,r21
 2002b44:	843fffc4 	addi	r16,r16,-1
 2002b48:	003f9306 	br	2002998 <__udivdi3+0x3dc>
 2002b4c:	147f802e 	bgeu	r2,r17,2002950 <__udivdi3+0x394>
 2002b50:	a53fffc4 	addi	r20,r20,-1
 2002b54:	1545883a 	add	r2,r2,r21
 2002b58:	003f7d06 	br	2002950 <__udivdi3+0x394>
 2002b5c:	a53fffc4 	addi	r20,r20,-1
 2002b60:	003ede06 	br	20026dc <__udivdi3+0x120>
 2002b64:	b5bfffc4 	addi	r22,r22,-1
 2002b68:	1405883a 	add	r2,r2,r16
 2002b6c:	003f2806 	br	2002810 <__udivdi3+0x254>
 2002b70:	a53fffc4 	addi	r20,r20,-1
 2002b74:	003f3706 	br	2002854 <__udivdi3+0x298>
 2002b78:	147fbb2e 	bgeu	r2,r17,2002a68 <__udivdi3+0x4ac>
 2002b7c:	297fffc4 	addi	r5,r5,-1
 2002b80:	1405883a 	add	r2,r2,r16
 2002b84:	d9400415 	stw	r5,16(sp)
 2002b88:	003fb706 	br	2002a68 <__udivdi3+0x4ac>
 2002b8c:	b5bfffc4 	addi	r22,r22,-1
 2002b90:	1405883a 	add	r2,r2,r16
 2002b94:	003ec006 	br	2002698 <__udivdi3+0xdc>

02002b98 <_fpadd_parts>:
 2002b98:	21c00017 	ldw	r7,0(r4)
 2002b9c:	02000044 	movi	r8,1
 2002ba0:	41c0332e 	bgeu	r8,r7,2002c70 <_fpadd_parts+0xd8>
 2002ba4:	28800017 	ldw	r2,0(r5)
 2002ba8:	4080462e 	bgeu	r8,r2,2002cc4 <_fpadd_parts+0x12c>
 2002bac:	00c00104 	movi	r3,4
 2002bb0:	38c06b26 	beq	r7,r3,2002d60 <_fpadd_parts+0x1c8>
 2002bb4:	10c04326 	beq	r2,r3,2002cc4 <_fpadd_parts+0x12c>
 2002bb8:	00c00084 	movi	r3,2
 2002bbc:	10c02e26 	beq	r2,r3,2002c78 <_fpadd_parts+0xe0>
 2002bc0:	38c04026 	beq	r7,r3,2002cc4 <_fpadd_parts+0x12c>
 2002bc4:	22800217 	ldw	r10,8(r4)
 2002bc8:	28c00217 	ldw	r3,8(r5)
 2002bcc:	23000317 	ldw	r12,12(r4)
 2002bd0:	2a400317 	ldw	r9,12(r5)
 2002bd4:	50cfc83a 	sub	r7,r10,r3
 2002bd8:	3817883a 	mov	r11,r7
 2002bdc:	38004f16 	blt	r7,zero,2002d1c <_fpadd_parts+0x184>
 2002be0:	008007c4 	movi	r2,31
 2002be4:	11c03316 	blt	r2,r7,2002cb4 <_fpadd_parts+0x11c>
 2002be8:	02c0540e 	bge	zero,r11,2002d3c <_fpadd_parts+0x1a4>
 2002bec:	41c4983a 	sll	r2,r8,r7
 2002bf0:	49c6d83a 	srl	r3,r9,r7
 2002bf4:	10bfffc4 	addi	r2,r2,-1
 2002bf8:	4884703a 	and	r2,r9,r2
 2002bfc:	1004c03a 	cmpne	r2,r2,zero
 2002c00:	1892b03a 	or	r9,r3,r2
 2002c04:	20c00117 	ldw	r3,4(r4)
 2002c08:	28800117 	ldw	r2,4(r5)
 2002c0c:	18803c26 	beq	r3,r2,2002d00 <_fpadd_parts+0x168>
 2002c10:	18002f26 	beq	r3,zero,2002cd0 <_fpadd_parts+0x138>
 2002c14:	4b05c83a 	sub	r2,r9,r12
 2002c18:	10004216 	blt	r2,zero,2002d24 <_fpadd_parts+0x18c>
 2002c1c:	32800215 	stw	r10,8(r6)
 2002c20:	30800315 	stw	r2,12(r6)
 2002c24:	30000115 	stw	zero,4(r6)
 2002c28:	31000317 	ldw	r4,12(r6)
 2002c2c:	01d00034 	movhi	r7,16384
 2002c30:	39ffff84 	addi	r7,r7,-2
 2002c34:	20bfffc4 	addi	r2,r4,-1
 2002c38:	2007883a 	mov	r3,r4
 2002c3c:	38800836 	bltu	r7,r2,2002c60 <_fpadd_parts+0xc8>
 2002c40:	31400217 	ldw	r5,8(r6)
 2002c44:	18c9883a 	add	r4,r3,r3
 2002c48:	20bfffc4 	addi	r2,r4,-1
 2002c4c:	297fffc4 	addi	r5,r5,-1
 2002c50:	2007883a 	mov	r3,r4
 2002c54:	38bffb2e 	bgeu	r7,r2,2002c44 <_fpadd_parts+0xac>
 2002c58:	31400215 	stw	r5,8(r6)
 2002c5c:	31000315 	stw	r4,12(r6)
 2002c60:	008000c4 	movi	r2,3
 2002c64:	30800015 	stw	r2,0(r6)
 2002c68:	20001b16 	blt	r4,zero,2002cd8 <_fpadd_parts+0x140>
 2002c6c:	3009883a 	mov	r4,r6
 2002c70:	2005883a 	mov	r2,r4
 2002c74:	f800283a 	ret
 2002c78:	38fffd1e 	bne	r7,r3,2002c70 <_fpadd_parts+0xd8>
 2002c7c:	31c00015 	stw	r7,0(r6)
 2002c80:	20800117 	ldw	r2,4(r4)
 2002c84:	30800115 	stw	r2,4(r6)
 2002c88:	20c00217 	ldw	r3,8(r4)
 2002c8c:	30c00215 	stw	r3,8(r6)
 2002c90:	20800317 	ldw	r2,12(r4)
 2002c94:	30800315 	stw	r2,12(r6)
 2002c98:	20c00117 	ldw	r3,4(r4)
 2002c9c:	28800117 	ldw	r2,4(r5)
 2002ca0:	3009883a 	mov	r4,r6
 2002ca4:	1886703a 	and	r3,r3,r2
 2002ca8:	2005883a 	mov	r2,r4
 2002cac:	30c00115 	stw	r3,4(r6)
 2002cb0:	f800283a 	ret
 2002cb4:	1a801716 	blt	r3,r10,2002d14 <_fpadd_parts+0x17c>
 2002cb8:	1815883a 	mov	r10,r3
 2002cbc:	0019883a 	mov	r12,zero
 2002cc0:	003fd006 	br	2002c04 <_fpadd_parts+0x6c>
 2002cc4:	2809883a 	mov	r4,r5
 2002cc8:	2005883a 	mov	r2,r4
 2002ccc:	f800283a 	ret
 2002cd0:	6245c83a 	sub	r2,r12,r9
 2002cd4:	003fd006 	br	2002c18 <_fpadd_parts+0x80>
 2002cd8:	30800217 	ldw	r2,8(r6)
 2002cdc:	2006d07a 	srli	r3,r4,1
 2002ce0:	2100004c 	andi	r4,r4,1
 2002ce4:	10800044 	addi	r2,r2,1
 2002ce8:	1906b03a 	or	r3,r3,r4
 2002cec:	3009883a 	mov	r4,r6
 2002cf0:	30800215 	stw	r2,8(r6)
 2002cf4:	2005883a 	mov	r2,r4
 2002cf8:	30c00315 	stw	r3,12(r6)
 2002cfc:	f800283a 	ret
 2002d00:	6249883a 	add	r4,r12,r9
 2002d04:	30c00115 	stw	r3,4(r6)
 2002d08:	32800215 	stw	r10,8(r6)
 2002d0c:	31000315 	stw	r4,12(r6)
 2002d10:	003fd306 	br	2002c60 <_fpadd_parts+0xc8>
 2002d14:	0013883a 	mov	r9,zero
 2002d18:	003fba06 	br	2002c04 <_fpadd_parts+0x6c>
 2002d1c:	01cfc83a 	sub	r7,zero,r7
 2002d20:	003faf06 	br	2002be0 <_fpadd_parts+0x48>
 2002d24:	0089c83a 	sub	r4,zero,r2
 2002d28:	00800044 	movi	r2,1
 2002d2c:	30800115 	stw	r2,4(r6)
 2002d30:	32800215 	stw	r10,8(r6)
 2002d34:	31000315 	stw	r4,12(r6)
 2002d38:	003fbb06 	br	2002c28 <_fpadd_parts+0x90>
 2002d3c:	583fb126 	beq	r11,zero,2002c04 <_fpadd_parts+0x6c>
 2002d40:	41c4983a 	sll	r2,r8,r7
 2002d44:	61c6d83a 	srl	r3,r12,r7
 2002d48:	51d5883a 	add	r10,r10,r7
 2002d4c:	10bfffc4 	addi	r2,r2,-1
 2002d50:	6084703a 	and	r2,r12,r2
 2002d54:	1004c03a 	cmpne	r2,r2,zero
 2002d58:	1898b03a 	or	r12,r3,r2
 2002d5c:	003fa906 	br	2002c04 <_fpadd_parts+0x6c>
 2002d60:	11ffc31e 	bne	r2,r7,2002c70 <_fpadd_parts+0xd8>
 2002d64:	28c00117 	ldw	r3,4(r5)
 2002d68:	20800117 	ldw	r2,4(r4)
 2002d6c:	10ffc026 	beq	r2,r3,2002c70 <_fpadd_parts+0xd8>
 2002d70:	01008074 	movhi	r4,513
 2002d74:	210e0d04 	addi	r4,r4,14388
 2002d78:	003fbd06 	br	2002c70 <_fpadd_parts+0xd8>

02002d7c <__subsf3>:
 2002d7c:	deffef04 	addi	sp,sp,-68
 2002d80:	dcc00f15 	stw	r19,60(sp)
 2002d84:	dcc00204 	addi	r19,sp,8
 2002d88:	dc400e15 	stw	r17,56(sp)
 2002d8c:	d9000015 	stw	r4,0(sp)
 2002d90:	d9400115 	stw	r5,4(sp)
 2002d94:	d809883a 	mov	r4,sp
 2002d98:	980b883a 	mov	r5,r19
 2002d9c:	dc400604 	addi	r17,sp,24
 2002da0:	dfc01015 	stw	ra,64(sp)
 2002da4:	20047fc0 	call	20047fc <__unpack_f>
 2002da8:	d9000104 	addi	r4,sp,4
 2002dac:	880b883a 	mov	r5,r17
 2002db0:	20047fc0 	call	20047fc <__unpack_f>
 2002db4:	d8800717 	ldw	r2,28(sp)
 2002db8:	9809883a 	mov	r4,r19
 2002dbc:	880b883a 	mov	r5,r17
 2002dc0:	d9800a04 	addi	r6,sp,40
 2002dc4:	1080005c 	xori	r2,r2,1
 2002dc8:	d8800715 	stw	r2,28(sp)
 2002dcc:	2002b980 	call	2002b98 <_fpadd_parts>
 2002dd0:	1009883a 	mov	r4,r2
 2002dd4:	200469c0 	call	200469c <__pack_f>
 2002dd8:	dfc01017 	ldw	ra,64(sp)
 2002ddc:	dcc00f17 	ldw	r19,60(sp)
 2002de0:	dc400e17 	ldw	r17,56(sp)
 2002de4:	dec01104 	addi	sp,sp,68
 2002de8:	f800283a 	ret

02002dec <__addsf3>:
 2002dec:	deffef04 	addi	sp,sp,-68
 2002df0:	dcc00f15 	stw	r19,60(sp)
 2002df4:	dcc00204 	addi	r19,sp,8
 2002df8:	dc400e15 	stw	r17,56(sp)
 2002dfc:	d9000015 	stw	r4,0(sp)
 2002e00:	d9400115 	stw	r5,4(sp)
 2002e04:	d809883a 	mov	r4,sp
 2002e08:	980b883a 	mov	r5,r19
 2002e0c:	dc400604 	addi	r17,sp,24
 2002e10:	dfc01015 	stw	ra,64(sp)
 2002e14:	20047fc0 	call	20047fc <__unpack_f>
 2002e18:	d9000104 	addi	r4,sp,4
 2002e1c:	880b883a 	mov	r5,r17
 2002e20:	20047fc0 	call	20047fc <__unpack_f>
 2002e24:	d9800a04 	addi	r6,sp,40
 2002e28:	9809883a 	mov	r4,r19
 2002e2c:	880b883a 	mov	r5,r17
 2002e30:	2002b980 	call	2002b98 <_fpadd_parts>
 2002e34:	1009883a 	mov	r4,r2
 2002e38:	200469c0 	call	200469c <__pack_f>
 2002e3c:	dfc01017 	ldw	ra,64(sp)
 2002e40:	dcc00f17 	ldw	r19,60(sp)
 2002e44:	dc400e17 	ldw	r17,56(sp)
 2002e48:	dec01104 	addi	sp,sp,68
 2002e4c:	f800283a 	ret

02002e50 <__mulsf3>:
 2002e50:	deffef04 	addi	sp,sp,-68
 2002e54:	dc400f15 	stw	r17,60(sp)
 2002e58:	dc400204 	addi	r17,sp,8
 2002e5c:	dc000e15 	stw	r16,56(sp)
 2002e60:	d9000015 	stw	r4,0(sp)
 2002e64:	d9400115 	stw	r5,4(sp)
 2002e68:	d809883a 	mov	r4,sp
 2002e6c:	880b883a 	mov	r5,r17
 2002e70:	dc000604 	addi	r16,sp,24
 2002e74:	dfc01015 	stw	ra,64(sp)
 2002e78:	20047fc0 	call	20047fc <__unpack_f>
 2002e7c:	d9000104 	addi	r4,sp,4
 2002e80:	800b883a 	mov	r5,r16
 2002e84:	20047fc0 	call	20047fc <__unpack_f>
 2002e88:	d9000217 	ldw	r4,8(sp)
 2002e8c:	00800044 	movi	r2,1
 2002e90:	01400104 	movi	r5,4
 2002e94:	1100142e 	bgeu	r2,r4,2002ee8 <__mulsf3+0x98>
 2002e98:	d8c00617 	ldw	r3,24(sp)
 2002e9c:	10c0052e 	bgeu	r2,r3,2002eb4 <__mulsf3+0x64>
 2002ea0:	21400f26 	beq	r4,r5,2002ee0 <__mulsf3+0x90>
 2002ea4:	19405d26 	beq	r3,r5,200301c <__mulsf3+0x1cc>
 2002ea8:	00800084 	movi	r2,2
 2002eac:	20800e26 	beq	r4,r2,2002ee8 <__mulsf3+0x98>
 2002eb0:	1880181e 	bne	r3,r2,2002f14 <__mulsf3+0xc4>
 2002eb4:	d8c00717 	ldw	r3,28(sp)
 2002eb8:	d8800317 	ldw	r2,12(sp)
 2002ebc:	8009883a 	mov	r4,r16
 2002ec0:	10c4c03a 	cmpne	r2,r2,r3
 2002ec4:	d8800715 	stw	r2,28(sp)
 2002ec8:	200469c0 	call	200469c <__pack_f>
 2002ecc:	dfc01017 	ldw	ra,64(sp)
 2002ed0:	dc400f17 	ldw	r17,60(sp)
 2002ed4:	dc000e17 	ldw	r16,56(sp)
 2002ed8:	dec01104 	addi	sp,sp,68
 2002edc:	f800283a 	ret
 2002ee0:	00800084 	movi	r2,2
 2002ee4:	18804f26 	beq	r3,r2,2003024 <__mulsf3+0x1d4>
 2002ee8:	d8800317 	ldw	r2,12(sp)
 2002eec:	d8c00717 	ldw	r3,28(sp)
 2002ef0:	8809883a 	mov	r4,r17
 2002ef4:	10c4c03a 	cmpne	r2,r2,r3
 2002ef8:	d8800315 	stw	r2,12(sp)
 2002efc:	200469c0 	call	200469c <__pack_f>
 2002f00:	dfc01017 	ldw	ra,64(sp)
 2002f04:	dc400f17 	ldw	r17,60(sp)
 2002f08:	dc000e17 	ldw	r16,56(sp)
 2002f0c:	dec01104 	addi	sp,sp,68
 2002f10:	f800283a 	ret
 2002f14:	d8800517 	ldw	r2,20(sp)
 2002f18:	da000917 	ldw	r8,36(sp)
 2002f1c:	0013883a 	mov	r9,zero
 2002f20:	0007883a 	mov	r3,zero
 2002f24:	480f883a 	mov	r7,r9
 2002f28:	180b883a 	mov	r5,r3
 2002f2c:	400d883a 	mov	r6,r8
 2002f30:	1009883a 	mov	r4,r2
 2002f34:	20044e00 	call	20044e0 <__muldi3>
 2002f38:	da800417 	ldw	r10,16(sp)
 2002f3c:	d9800817 	ldw	r6,32(sp)
 2002f40:	da400317 	ldw	r9,12(sp)
 2002f44:	52800084 	addi	r10,r10,2
 2002f48:	3295883a 	add	r10,r6,r10
 2002f4c:	d9800717 	ldw	r6,28(sp)
 2002f50:	180b883a 	mov	r5,r3
 2002f54:	180f883a 	mov	r7,r3
 2002f58:	4992c03a 	cmpne	r9,r9,r6
 2002f5c:	da400b15 	stw	r9,44(sp)
 2002f60:	1007883a 	mov	r3,r2
 2002f64:	da800c15 	stw	r10,48(sp)
 2002f68:	2800070e 	bge	r5,zero,2002f88 <__mulsf3+0x138>
 2002f6c:	2880004c 	andi	r2,r5,1
 2002f70:	1005003a 	cmpeq	r2,r2,zero
 2002f74:	500d883a 	mov	r6,r10
 2002f78:	10001e26 	beq	r2,zero,2002ff4 <__mulsf3+0x1a4>
 2002f7c:	380ed07a 	srli	r7,r7,1
 2002f80:	31800044 	addi	r6,r6,1
 2002f84:	d9800c15 	stw	r6,48(sp)
 2002f88:	01100034 	movhi	r4,16384
 2002f8c:	213fffc4 	addi	r4,r4,-1
 2002f90:	21c00b36 	bltu	r4,r7,2002fc0 <__mulsf3+0x170>
 2002f94:	d8800c17 	ldw	r2,48(sp)
 2002f98:	00000206 	br	2002fa4 <__mulsf3+0x154>
 2002f9c:	18c7883a 	add	r3,r3,r3
 2002fa0:	21c00636 	bltu	r4,r7,2002fbc <__mulsf3+0x16c>
 2002fa4:	10bfffc4 	addi	r2,r2,-1
 2002fa8:	39cf883a 	add	r7,r7,r7
 2002fac:	183ffb0e 	bge	r3,zero,2002f9c <__mulsf3+0x14c>
 2002fb0:	39c00054 	ori	r7,r7,1
 2002fb4:	18c7883a 	add	r3,r3,r3
 2002fb8:	21fffa2e 	bgeu	r4,r7,2002fa4 <__mulsf3+0x154>
 2002fbc:	d8800c15 	stw	r2,48(sp)
 2002fc0:	39001fcc 	andi	r4,r7,127
 2002fc4:	00801004 	movi	r2,64
 2002fc8:	20800d26 	beq	r4,r2,2003000 <__mulsf3+0x1b0>
 2002fcc:	008000c4 	movi	r2,3
 2002fd0:	d9000a04 	addi	r4,sp,40
 2002fd4:	d9c00d15 	stw	r7,52(sp)
 2002fd8:	d8800a15 	stw	r2,40(sp)
 2002fdc:	200469c0 	call	200469c <__pack_f>
 2002fe0:	dfc01017 	ldw	ra,64(sp)
 2002fe4:	dc400f17 	ldw	r17,60(sp)
 2002fe8:	dc000e17 	ldw	r16,56(sp)
 2002fec:	dec01104 	addi	sp,sp,68
 2002ff0:	f800283a 	ret
 2002ff4:	1804d07a 	srli	r2,r3,1
 2002ff8:	10e00034 	orhi	r3,r2,32768
 2002ffc:	003fdf06 	br	2002f7c <__mulsf3+0x12c>
 2003000:	3880200c 	andi	r2,r7,128
 2003004:	103ff11e 	bne	r2,zero,2002fcc <__mulsf3+0x17c>
 2003008:	183ff026 	beq	r3,zero,2002fcc <__mulsf3+0x17c>
 200300c:	3907883a 	add	r3,r7,r4
 2003010:	00bfe004 	movi	r2,-128
 2003014:	188e703a 	and	r7,r3,r2
 2003018:	003fec06 	br	2002fcc <__mulsf3+0x17c>
 200301c:	00800084 	movi	r2,2
 2003020:	20bfa41e 	bne	r4,r2,2002eb4 <__mulsf3+0x64>
 2003024:	01008074 	movhi	r4,513
 2003028:	210e0d04 	addi	r4,r4,14388
 200302c:	003fb306 	br	2002efc <__mulsf3+0xac>

02003030 <__divsf3>:
 2003030:	defff304 	addi	sp,sp,-52
 2003034:	dc400b15 	stw	r17,44(sp)
 2003038:	dc400204 	addi	r17,sp,8
 200303c:	dc000a15 	stw	r16,40(sp)
 2003040:	d9000015 	stw	r4,0(sp)
 2003044:	d9400115 	stw	r5,4(sp)
 2003048:	d809883a 	mov	r4,sp
 200304c:	880b883a 	mov	r5,r17
 2003050:	dc000604 	addi	r16,sp,24
 2003054:	dfc00c15 	stw	ra,48(sp)
 2003058:	20047fc0 	call	20047fc <__unpack_f>
 200305c:	d9000104 	addi	r4,sp,4
 2003060:	800b883a 	mov	r5,r16
 2003064:	20047fc0 	call	20047fc <__unpack_f>
 2003068:	d9000217 	ldw	r4,8(sp)
 200306c:	00800044 	movi	r2,1
 2003070:	01800104 	movi	r6,4
 2003074:	11000a2e 	bgeu	r2,r4,20030a0 <__divsf3+0x70>
 2003078:	d9400617 	ldw	r5,24(sp)
 200307c:	1140432e 	bgeu	r2,r5,200318c <__divsf3+0x15c>
 2003080:	d8800317 	ldw	r2,12(sp)
 2003084:	d8c00717 	ldw	r3,28(sp)
 2003088:	10c4f03a 	xor	r2,r2,r3
 200308c:	d8800315 	stw	r2,12(sp)
 2003090:	21800226 	beq	r4,r6,200309c <__divsf3+0x6c>
 2003094:	00800084 	movi	r2,2
 2003098:	2080101e 	bne	r4,r2,20030dc <__divsf3+0xac>
 200309c:	29000726 	beq	r5,r4,20030bc <__divsf3+0x8c>
 20030a0:	8809883a 	mov	r4,r17
 20030a4:	200469c0 	call	200469c <__pack_f>
 20030a8:	dfc00c17 	ldw	ra,48(sp)
 20030ac:	dc400b17 	ldw	r17,44(sp)
 20030b0:	dc000a17 	ldw	r16,40(sp)
 20030b4:	dec00d04 	addi	sp,sp,52
 20030b8:	f800283a 	ret
 20030bc:	01008074 	movhi	r4,513
 20030c0:	210e0d04 	addi	r4,r4,14388
 20030c4:	200469c0 	call	200469c <__pack_f>
 20030c8:	dfc00c17 	ldw	ra,48(sp)
 20030cc:	dc400b17 	ldw	r17,44(sp)
 20030d0:	dc000a17 	ldw	r16,40(sp)
 20030d4:	dec00d04 	addi	sp,sp,52
 20030d8:	f800283a 	ret
 20030dc:	29802d26 	beq	r5,r6,2003194 <__divsf3+0x164>
 20030e0:	28801a26 	beq	r5,r2,200314c <__divsf3+0x11c>
 20030e4:	d8c00417 	ldw	r3,16(sp)
 20030e8:	d8800817 	ldw	r2,32(sp)
 20030ec:	d9000517 	ldw	r4,20(sp)
 20030f0:	d9800917 	ldw	r6,36(sp)
 20030f4:	1885c83a 	sub	r2,r3,r2
 20030f8:	d8800415 	stw	r2,16(sp)
 20030fc:	2180032e 	bgeu	r4,r6,200310c <__divsf3+0xdc>
 2003100:	10bfffc4 	addi	r2,r2,-1
 2003104:	d8800415 	stw	r2,16(sp)
 2003108:	2109883a 	add	r4,r4,r4
 200310c:	01500034 	movhi	r5,16384
 2003110:	0007883a 	mov	r3,zero
 2003114:	0005883a 	mov	r2,zero
 2003118:	01c007c4 	movi	r7,31
 200311c:	10800044 	addi	r2,r2,1
 2003120:	21800236 	bltu	r4,r6,200312c <__divsf3+0xfc>
 2003124:	1946b03a 	or	r3,r3,r5
 2003128:	2189c83a 	sub	r4,r4,r6
 200312c:	280ad07a 	srli	r5,r5,1
 2003130:	2109883a 	add	r4,r4,r4
 2003134:	11fff91e 	bne	r2,r7,200311c <__divsf3+0xec>
 2003138:	19401fcc 	andi	r5,r3,127
 200313c:	00801004 	movi	r2,64
 2003140:	28800a26 	beq	r5,r2,200316c <__divsf3+0x13c>
 2003144:	d8c00515 	stw	r3,20(sp)
 2003148:	003fd506 	br	20030a0 <__divsf3+0x70>
 200314c:	8809883a 	mov	r4,r17
 2003150:	d9800215 	stw	r6,8(sp)
 2003154:	200469c0 	call	200469c <__pack_f>
 2003158:	dfc00c17 	ldw	ra,48(sp)
 200315c:	dc400b17 	ldw	r17,44(sp)
 2003160:	dc000a17 	ldw	r16,40(sp)
 2003164:	dec00d04 	addi	sp,sp,52
 2003168:	f800283a 	ret
 200316c:	1880200c 	andi	r2,r3,128
 2003170:	103ff41e 	bne	r2,zero,2003144 <__divsf3+0x114>
 2003174:	203ff326 	beq	r4,zero,2003144 <__divsf3+0x114>
 2003178:	1947883a 	add	r3,r3,r5
 200317c:	00bfe004 	movi	r2,-128
 2003180:	1886703a 	and	r3,r3,r2
 2003184:	d8c00515 	stw	r3,20(sp)
 2003188:	003fc506 	br	20030a0 <__divsf3+0x70>
 200318c:	8009883a 	mov	r4,r16
 2003190:	003fc406 	br	20030a4 <__divsf3+0x74>
 2003194:	8809883a 	mov	r4,r17
 2003198:	d8000515 	stw	zero,20(sp)
 200319c:	d8000415 	stw	zero,16(sp)
 20031a0:	003fc006 	br	20030a4 <__divsf3+0x74>

020031a4 <__gtsf2>:
 20031a4:	defff304 	addi	sp,sp,-52
 20031a8:	dc400b15 	stw	r17,44(sp)
 20031ac:	dc400204 	addi	r17,sp,8
 20031b0:	dc000a15 	stw	r16,40(sp)
 20031b4:	d9000015 	stw	r4,0(sp)
 20031b8:	d9400115 	stw	r5,4(sp)
 20031bc:	d809883a 	mov	r4,sp
 20031c0:	880b883a 	mov	r5,r17
 20031c4:	dc000604 	addi	r16,sp,24
 20031c8:	dfc00c15 	stw	ra,48(sp)
 20031cc:	20047fc0 	call	20047fc <__unpack_f>
 20031d0:	d9000104 	addi	r4,sp,4
 20031d4:	800b883a 	mov	r5,r16
 20031d8:	20047fc0 	call	20047fc <__unpack_f>
 20031dc:	d8800217 	ldw	r2,8(sp)
 20031e0:	00c00044 	movi	r3,1
 20031e4:	01bfffc4 	movi	r6,-1
 20031e8:	1880062e 	bgeu	r3,r2,2003204 <__gtsf2+0x60>
 20031ec:	d8800617 	ldw	r2,24(sp)
 20031f0:	8809883a 	mov	r4,r17
 20031f4:	800b883a 	mov	r5,r16
 20031f8:	1880022e 	bgeu	r3,r2,2003204 <__gtsf2+0x60>
 20031fc:	20048c40 	call	20048c4 <__fpcmp_parts_f>
 2003200:	100d883a 	mov	r6,r2
 2003204:	3005883a 	mov	r2,r6
 2003208:	dfc00c17 	ldw	ra,48(sp)
 200320c:	dc400b17 	ldw	r17,44(sp)
 2003210:	dc000a17 	ldw	r16,40(sp)
 2003214:	dec00d04 	addi	sp,sp,52
 2003218:	f800283a 	ret

0200321c <__ltsf2>:
 200321c:	defff304 	addi	sp,sp,-52
 2003220:	dc400b15 	stw	r17,44(sp)
 2003224:	dc400204 	addi	r17,sp,8
 2003228:	dc000a15 	stw	r16,40(sp)
 200322c:	d9000015 	stw	r4,0(sp)
 2003230:	d9400115 	stw	r5,4(sp)
 2003234:	d809883a 	mov	r4,sp
 2003238:	880b883a 	mov	r5,r17
 200323c:	dc000604 	addi	r16,sp,24
 2003240:	dfc00c15 	stw	ra,48(sp)
 2003244:	20047fc0 	call	20047fc <__unpack_f>
 2003248:	d9000104 	addi	r4,sp,4
 200324c:	800b883a 	mov	r5,r16
 2003250:	20047fc0 	call	20047fc <__unpack_f>
 2003254:	d8800217 	ldw	r2,8(sp)
 2003258:	00c00044 	movi	r3,1
 200325c:	180d883a 	mov	r6,r3
 2003260:	1880062e 	bgeu	r3,r2,200327c <__ltsf2+0x60>
 2003264:	d8800617 	ldw	r2,24(sp)
 2003268:	8809883a 	mov	r4,r17
 200326c:	800b883a 	mov	r5,r16
 2003270:	1880022e 	bgeu	r3,r2,200327c <__ltsf2+0x60>
 2003274:	20048c40 	call	20048c4 <__fpcmp_parts_f>
 2003278:	100d883a 	mov	r6,r2
 200327c:	3005883a 	mov	r2,r6
 2003280:	dfc00c17 	ldw	ra,48(sp)
 2003284:	dc400b17 	ldw	r17,44(sp)
 2003288:	dc000a17 	ldw	r16,40(sp)
 200328c:	dec00d04 	addi	sp,sp,52
 2003290:	f800283a 	ret

02003294 <__floatsisf>:
 2003294:	2006d7fa 	srli	r3,r4,31
 2003298:	defffa04 	addi	sp,sp,-24
 200329c:	008000c4 	movi	r2,3
 20032a0:	dfc00515 	stw	ra,20(sp)
 20032a4:	dc000415 	stw	r16,16(sp)
 20032a8:	d8800015 	stw	r2,0(sp)
 20032ac:	d8c00115 	stw	r3,4(sp)
 20032b0:	2000081e 	bne	r4,zero,20032d4 <__floatsisf+0x40>
 20032b4:	00800084 	movi	r2,2
 20032b8:	d8800015 	stw	r2,0(sp)
 20032bc:	d809883a 	mov	r4,sp
 20032c0:	200469c0 	call	200469c <__pack_f>
 20032c4:	dfc00517 	ldw	ra,20(sp)
 20032c8:	dc000417 	ldw	r16,16(sp)
 20032cc:	dec00604 	addi	sp,sp,24
 20032d0:	f800283a 	ret
 20032d4:	00800784 	movi	r2,30
 20032d8:	1807003a 	cmpeq	r3,r3,zero
 20032dc:	d8800215 	stw	r2,8(sp)
 20032e0:	18000e1e 	bne	r3,zero,200331c <__floatsisf+0x88>
 20032e4:	00a00034 	movhi	r2,32768
 20032e8:	20800e26 	beq	r4,r2,2003324 <__floatsisf+0x90>
 20032ec:	0121c83a 	sub	r16,zero,r4
 20032f0:	8009883a 	mov	r4,r16
 20032f4:	dc000315 	stw	r16,12(sp)
 20032f8:	20045780 	call	2004578 <__clzsi2>
 20032fc:	117fffc4 	addi	r5,r2,-1
 2003300:	017fee0e 	bge	zero,r5,20032bc <__floatsisf+0x28>
 2003304:	d8800217 	ldw	r2,8(sp)
 2003308:	8146983a 	sll	r3,r16,r5
 200330c:	1145c83a 	sub	r2,r2,r5
 2003310:	d8c00315 	stw	r3,12(sp)
 2003314:	d8800215 	stw	r2,8(sp)
 2003318:	003fe806 	br	20032bc <__floatsisf+0x28>
 200331c:	2021883a 	mov	r16,r4
 2003320:	003ff306 	br	20032f0 <__floatsisf+0x5c>
 2003324:	00b3c034 	movhi	r2,52992
 2003328:	003fe606 	br	20032c4 <__floatsisf+0x30>

0200332c <__fixsfsi>:
 200332c:	defffa04 	addi	sp,sp,-24
 2003330:	d9000015 	stw	r4,0(sp)
 2003334:	d9400104 	addi	r5,sp,4
 2003338:	d809883a 	mov	r4,sp
 200333c:	dfc00515 	stw	ra,20(sp)
 2003340:	20047fc0 	call	20047fc <__unpack_f>
 2003344:	d8c00117 	ldw	r3,4(sp)
 2003348:	00800084 	movi	r2,2
 200334c:	1880041e 	bne	r3,r2,2003360 <__fixsfsi+0x34>
 2003350:	0005883a 	mov	r2,zero
 2003354:	dfc00517 	ldw	ra,20(sp)
 2003358:	dec00604 	addi	sp,sp,24
 200335c:	f800283a 	ret
 2003360:	00800044 	movi	r2,1
 2003364:	10fffa2e 	bgeu	r2,r3,2003350 <__fixsfsi+0x24>
 2003368:	00800104 	movi	r2,4
 200336c:	18800426 	beq	r3,r2,2003380 <__fixsfsi+0x54>
 2003370:	d8800317 	ldw	r2,12(sp)
 2003374:	103ff616 	blt	r2,zero,2003350 <__fixsfsi+0x24>
 2003378:	00c00784 	movi	r3,30
 200337c:	1880070e 	bge	r3,r2,200339c <__fixsfsi+0x70>
 2003380:	d8800217 	ldw	r2,8(sp)
 2003384:	10000c1e 	bne	r2,zero,20033b8 <__fixsfsi+0x8c>
 2003388:	00a00034 	movhi	r2,32768
 200338c:	10bfffc4 	addi	r2,r2,-1
 2003390:	dfc00517 	ldw	ra,20(sp)
 2003394:	dec00604 	addi	sp,sp,24
 2003398:	f800283a 	ret
 200339c:	1885c83a 	sub	r2,r3,r2
 20033a0:	d9000217 	ldw	r4,8(sp)
 20033a4:	d8c00417 	ldw	r3,16(sp)
 20033a8:	1884d83a 	srl	r2,r3,r2
 20033ac:	203fe926 	beq	r4,zero,2003354 <__fixsfsi+0x28>
 20033b0:	0085c83a 	sub	r2,zero,r2
 20033b4:	003fe706 	br	2003354 <__fixsfsi+0x28>
 20033b8:	00a00034 	movhi	r2,32768
 20033bc:	003fe506 	br	2003354 <__fixsfsi+0x28>

020033c0 <__extendsfdf2>:
 20033c0:	defff904 	addi	sp,sp,-28
 20033c4:	d9000115 	stw	r4,4(sp)
 20033c8:	d9400204 	addi	r5,sp,8
 20033cc:	d9000104 	addi	r4,sp,4
 20033d0:	dfc00615 	stw	ra,24(sp)
 20033d4:	20047fc0 	call	20047fc <__unpack_f>
 20033d8:	d9c00517 	ldw	r7,20(sp)
 20033dc:	0011883a 	mov	r8,zero
 20033e0:	400697ba 	slli	r3,r8,30
 20033e4:	3812d0ba 	srli	r9,r7,2
 20033e8:	380497ba 	slli	r2,r7,30
 20033ec:	d9000217 	ldw	r4,8(sp)
 20033f0:	d9400317 	ldw	r5,12(sp)
 20033f4:	d9800417 	ldw	r6,16(sp)
 20033f8:	48c6b03a 	or	r3,r9,r3
 20033fc:	100f883a 	mov	r7,r2
 2003400:	d8c00015 	stw	r3,0(sp)
 2003404:	20041540 	call	2004154 <__make_dp>
 2003408:	dfc00617 	ldw	ra,24(sp)
 200340c:	dec00704 	addi	sp,sp,28
 2003410:	f800283a 	ret

02003414 <__floatunsisf>:
 2003414:	defff904 	addi	sp,sp,-28
 2003418:	dc400515 	stw	r17,20(sp)
 200341c:	dc000415 	stw	r16,16(sp)
 2003420:	dfc00615 	stw	ra,24(sp)
 2003424:	04400784 	movi	r17,30
 2003428:	2021883a 	mov	r16,r4
 200342c:	d8000115 	stw	zero,4(sp)
 2003430:	2000091e 	bne	r4,zero,2003458 <__floatunsisf+0x44>
 2003434:	00800084 	movi	r2,2
 2003438:	d8800015 	stw	r2,0(sp)
 200343c:	d809883a 	mov	r4,sp
 2003440:	200469c0 	call	200469c <__pack_f>
 2003444:	dfc00617 	ldw	ra,24(sp)
 2003448:	dc400517 	ldw	r17,20(sp)
 200344c:	dc000417 	ldw	r16,16(sp)
 2003450:	dec00704 	addi	sp,sp,28
 2003454:	f800283a 	ret
 2003458:	008000c4 	movi	r2,3
 200345c:	d9000315 	stw	r4,12(sp)
 2003460:	d8800015 	stw	r2,0(sp)
 2003464:	dc400215 	stw	r17,8(sp)
 2003468:	20045780 	call	2004578 <__clzsi2>
 200346c:	117fffc4 	addi	r5,r2,-1
 2003470:	0147c83a 	sub	r3,zero,r5
 2003474:	00800044 	movi	r2,1
 2003478:	10c4983a 	sll	r2,r2,r3
 200347c:	80c6d83a 	srl	r3,r16,r3
 2003480:	8949c83a 	sub	r4,r17,r5
 2003484:	10bfffc4 	addi	r2,r2,-1
 2003488:	8084703a 	and	r2,r16,r2
 200348c:	1004c03a 	cmpne	r2,r2,zero
 2003490:	1886b03a 	or	r3,r3,r2
 2003494:	28000c16 	blt	r5,zero,20034c8 <__floatunsisf+0xb4>
 2003498:	8144983a 	sll	r2,r16,r5
 200349c:	8947c83a 	sub	r3,r17,r5
 20034a0:	283fe626 	beq	r5,zero,200343c <__floatunsisf+0x28>
 20034a4:	d809883a 	mov	r4,sp
 20034a8:	d8800315 	stw	r2,12(sp)
 20034ac:	d8c00215 	stw	r3,8(sp)
 20034b0:	200469c0 	call	200469c <__pack_f>
 20034b4:	dfc00617 	ldw	ra,24(sp)
 20034b8:	dc400517 	ldw	r17,20(sp)
 20034bc:	dc000417 	ldw	r16,16(sp)
 20034c0:	dec00704 	addi	sp,sp,28
 20034c4:	f800283a 	ret
 20034c8:	d8c00315 	stw	r3,12(sp)
 20034cc:	d9000215 	stw	r4,8(sp)
 20034d0:	003fda06 	br	200343c <__floatunsisf+0x28>

020034d4 <_fpadd_parts>:
 20034d4:	defff804 	addi	sp,sp,-32
 20034d8:	dcc00315 	stw	r19,12(sp)
 20034dc:	2027883a 	mov	r19,r4
 20034e0:	21000017 	ldw	r4,0(r4)
 20034e4:	00c00044 	movi	r3,1
 20034e8:	dd400515 	stw	r21,20(sp)
 20034ec:	dd000415 	stw	r20,16(sp)
 20034f0:	ddc00715 	stw	r23,28(sp)
 20034f4:	dd800615 	stw	r22,24(sp)
 20034f8:	dc800215 	stw	r18,8(sp)
 20034fc:	dc400115 	stw	r17,4(sp)
 2003500:	dc000015 	stw	r16,0(sp)
 2003504:	282b883a 	mov	r21,r5
 2003508:	3029883a 	mov	r20,r6
 200350c:	1900632e 	bgeu	r3,r4,200369c <_fpadd_parts+0x1c8>
 2003510:	28800017 	ldw	r2,0(r5)
 2003514:	1880812e 	bgeu	r3,r2,200371c <_fpadd_parts+0x248>
 2003518:	00c00104 	movi	r3,4
 200351c:	20c0dc26 	beq	r4,r3,2003890 <_fpadd_parts+0x3bc>
 2003520:	10c07e26 	beq	r2,r3,200371c <_fpadd_parts+0x248>
 2003524:	00c00084 	movi	r3,2
 2003528:	10c06726 	beq	r2,r3,20036c8 <_fpadd_parts+0x1f4>
 200352c:	20c07b26 	beq	r4,r3,200371c <_fpadd_parts+0x248>
 2003530:	9dc00217 	ldw	r23,8(r19)
 2003534:	28c00217 	ldw	r3,8(r5)
 2003538:	9c400317 	ldw	r17,12(r19)
 200353c:	2bc00317 	ldw	r15,12(r5)
 2003540:	b8cdc83a 	sub	r6,r23,r3
 2003544:	9c800417 	ldw	r18,16(r19)
 2003548:	2c000417 	ldw	r16,16(r5)
 200354c:	3009883a 	mov	r4,r6
 2003550:	30009716 	blt	r6,zero,20037b0 <_fpadd_parts+0x2dc>
 2003554:	00800fc4 	movi	r2,63
 2003558:	11806b16 	blt	r2,r6,2003708 <_fpadd_parts+0x234>
 200355c:	0100a40e 	bge	zero,r4,20037f0 <_fpadd_parts+0x31c>
 2003560:	35bff804 	addi	r22,r6,-32
 2003564:	b000bc16 	blt	r22,zero,2003858 <_fpadd_parts+0x384>
 2003568:	8596d83a 	srl	r11,r16,r22
 200356c:	0019883a 	mov	r12,zero
 2003570:	0013883a 	mov	r9,zero
 2003574:	01000044 	movi	r4,1
 2003578:	0015883a 	mov	r10,zero
 200357c:	b000be16 	blt	r22,zero,2003878 <_fpadd_parts+0x3a4>
 2003580:	2590983a 	sll	r8,r4,r22
 2003584:	000f883a 	mov	r7,zero
 2003588:	00bfffc4 	movi	r2,-1
 200358c:	3889883a 	add	r4,r7,r2
 2003590:	408b883a 	add	r5,r8,r2
 2003594:	21cd803a 	cmpltu	r6,r4,r7
 2003598:	314b883a 	add	r5,r6,r5
 200359c:	7904703a 	and	r2,r15,r4
 20035a0:	8146703a 	and	r3,r16,r5
 20035a4:	10c4b03a 	or	r2,r2,r3
 20035a8:	10000226 	beq	r2,zero,20035b4 <_fpadd_parts+0xe0>
 20035ac:	02400044 	movi	r9,1
 20035b0:	0015883a 	mov	r10,zero
 20035b4:	5a5eb03a 	or	r15,r11,r9
 20035b8:	62a0b03a 	or	r16,r12,r10
 20035bc:	99400117 	ldw	r5,4(r19)
 20035c0:	a8800117 	ldw	r2,4(r21)
 20035c4:	28806e26 	beq	r5,r2,2003780 <_fpadd_parts+0x2ac>
 20035c8:	28006626 	beq	r5,zero,2003764 <_fpadd_parts+0x290>
 20035cc:	7c45c83a 	sub	r2,r15,r17
 20035d0:	7889803a 	cmpltu	r4,r15,r2
 20035d4:	8487c83a 	sub	r3,r16,r18
 20035d8:	1909c83a 	sub	r4,r3,r4
 20035dc:	100d883a 	mov	r6,r2
 20035e0:	200f883a 	mov	r7,r4
 20035e4:	38007716 	blt	r7,zero,20037c4 <_fpadd_parts+0x2f0>
 20035e8:	a5c00215 	stw	r23,8(r20)
 20035ec:	a1c00415 	stw	r7,16(r20)
 20035f0:	a0000115 	stw	zero,4(r20)
 20035f4:	a1800315 	stw	r6,12(r20)
 20035f8:	a2000317 	ldw	r8,12(r20)
 20035fc:	a2400417 	ldw	r9,16(r20)
 2003600:	00bfffc4 	movi	r2,-1
 2003604:	408b883a 	add	r5,r8,r2
 2003608:	2a09803a 	cmpltu	r4,r5,r8
 200360c:	488d883a 	add	r6,r9,r2
 2003610:	01c40034 	movhi	r7,4096
 2003614:	39ffffc4 	addi	r7,r7,-1
 2003618:	218d883a 	add	r6,r4,r6
 200361c:	39801736 	bltu	r7,r6,200367c <_fpadd_parts+0x1a8>
 2003620:	31c06526 	beq	r6,r7,20037b8 <_fpadd_parts+0x2e4>
 2003624:	a3000217 	ldw	r12,8(r20)
 2003628:	4209883a 	add	r4,r8,r8
 200362c:	00bfffc4 	movi	r2,-1
 2003630:	220f803a 	cmpltu	r7,r4,r8
 2003634:	4a4b883a 	add	r5,r9,r9
 2003638:	394f883a 	add	r7,r7,r5
 200363c:	2095883a 	add	r10,r4,r2
 2003640:	3897883a 	add	r11,r7,r2
 2003644:	510d803a 	cmpltu	r6,r10,r4
 2003648:	6099883a 	add	r12,r12,r2
 200364c:	32d7883a 	add	r11,r6,r11
 2003650:	00840034 	movhi	r2,4096
 2003654:	10bfffc4 	addi	r2,r2,-1
 2003658:	2011883a 	mov	r8,r4
 200365c:	3813883a 	mov	r9,r7
 2003660:	a1000315 	stw	r4,12(r20)
 2003664:	a1c00415 	stw	r7,16(r20)
 2003668:	a3000215 	stw	r12,8(r20)
 200366c:	12c00336 	bltu	r2,r11,200367c <_fpadd_parts+0x1a8>
 2003670:	58bfed1e 	bne	r11,r2,2003628 <_fpadd_parts+0x154>
 2003674:	00bfff84 	movi	r2,-2
 2003678:	12bfeb2e 	bgeu	r2,r10,2003628 <_fpadd_parts+0x154>
 200367c:	a2800417 	ldw	r10,16(r20)
 2003680:	008000c4 	movi	r2,3
 2003684:	00c80034 	movhi	r3,8192
 2003688:	18ffffc4 	addi	r3,r3,-1
 200368c:	a2400317 	ldw	r9,12(r20)
 2003690:	a0800015 	stw	r2,0(r20)
 2003694:	1a802336 	bltu	r3,r10,2003724 <_fpadd_parts+0x250>
 2003698:	a027883a 	mov	r19,r20
 200369c:	9805883a 	mov	r2,r19
 20036a0:	ddc00717 	ldw	r23,28(sp)
 20036a4:	dd800617 	ldw	r22,24(sp)
 20036a8:	dd400517 	ldw	r21,20(sp)
 20036ac:	dd000417 	ldw	r20,16(sp)
 20036b0:	dcc00317 	ldw	r19,12(sp)
 20036b4:	dc800217 	ldw	r18,8(sp)
 20036b8:	dc400117 	ldw	r17,4(sp)
 20036bc:	dc000017 	ldw	r16,0(sp)
 20036c0:	dec00804 	addi	sp,sp,32
 20036c4:	f800283a 	ret
 20036c8:	20fff41e 	bne	r4,r3,200369c <_fpadd_parts+0x1c8>
 20036cc:	31000015 	stw	r4,0(r6)
 20036d0:	98800117 	ldw	r2,4(r19)
 20036d4:	30800115 	stw	r2,4(r6)
 20036d8:	98c00217 	ldw	r3,8(r19)
 20036dc:	30c00215 	stw	r3,8(r6)
 20036e0:	98800317 	ldw	r2,12(r19)
 20036e4:	30800315 	stw	r2,12(r6)
 20036e8:	98c00417 	ldw	r3,16(r19)
 20036ec:	30c00415 	stw	r3,16(r6)
 20036f0:	98800117 	ldw	r2,4(r19)
 20036f4:	28c00117 	ldw	r3,4(r5)
 20036f8:	3027883a 	mov	r19,r6
 20036fc:	10c4703a 	and	r2,r2,r3
 2003700:	30800115 	stw	r2,4(r6)
 2003704:	003fe506 	br	200369c <_fpadd_parts+0x1c8>
 2003708:	1dc02616 	blt	r3,r23,20037a4 <_fpadd_parts+0x2d0>
 200370c:	0023883a 	mov	r17,zero
 2003710:	182f883a 	mov	r23,r3
 2003714:	0025883a 	mov	r18,zero
 2003718:	003fa806 	br	20035bc <_fpadd_parts+0xe8>
 200371c:	a827883a 	mov	r19,r21
 2003720:	003fde06 	br	200369c <_fpadd_parts+0x1c8>
 2003724:	01800044 	movi	r6,1
 2003728:	500497fa 	slli	r2,r10,31
 200372c:	4808d07a 	srli	r4,r9,1
 2003730:	518ad83a 	srl	r5,r10,r6
 2003734:	a2000217 	ldw	r8,8(r20)
 2003738:	1108b03a 	or	r4,r2,r4
 200373c:	0007883a 	mov	r3,zero
 2003740:	4984703a 	and	r2,r9,r6
 2003744:	208cb03a 	or	r6,r4,r2
 2003748:	28ceb03a 	or	r7,r5,r3
 200374c:	42000044 	addi	r8,r8,1
 2003750:	a027883a 	mov	r19,r20
 2003754:	a1c00415 	stw	r7,16(r20)
 2003758:	a2000215 	stw	r8,8(r20)
 200375c:	a1800315 	stw	r6,12(r20)
 2003760:	003fce06 	br	200369c <_fpadd_parts+0x1c8>
 2003764:	8bc5c83a 	sub	r2,r17,r15
 2003768:	8889803a 	cmpltu	r4,r17,r2
 200376c:	9407c83a 	sub	r3,r18,r16
 2003770:	1909c83a 	sub	r4,r3,r4
 2003774:	100d883a 	mov	r6,r2
 2003778:	200f883a 	mov	r7,r4
 200377c:	003f9906 	br	20035e4 <_fpadd_parts+0x110>
 2003780:	8bc5883a 	add	r2,r17,r15
 2003784:	1449803a 	cmpltu	r4,r2,r17
 2003788:	9407883a 	add	r3,r18,r16
 200378c:	20c9883a 	add	r4,r4,r3
 2003790:	a1400115 	stw	r5,4(r20)
 2003794:	a5c00215 	stw	r23,8(r20)
 2003798:	a0800315 	stw	r2,12(r20)
 200379c:	a1000415 	stw	r4,16(r20)
 20037a0:	003fb606 	br	200367c <_fpadd_parts+0x1a8>
 20037a4:	001f883a 	mov	r15,zero
 20037a8:	0021883a 	mov	r16,zero
 20037ac:	003f8306 	br	20035bc <_fpadd_parts+0xe8>
 20037b0:	018dc83a 	sub	r6,zero,r6
 20037b4:	003f6706 	br	2003554 <_fpadd_parts+0x80>
 20037b8:	00bfff84 	movi	r2,-2
 20037bc:	117faf36 	bltu	r2,r5,200367c <_fpadd_parts+0x1a8>
 20037c0:	003f9806 	br	2003624 <_fpadd_parts+0x150>
 20037c4:	0005883a 	mov	r2,zero
 20037c8:	1189c83a 	sub	r4,r2,r6
 20037cc:	1105803a 	cmpltu	r2,r2,r4
 20037d0:	01cbc83a 	sub	r5,zero,r7
 20037d4:	2885c83a 	sub	r2,r5,r2
 20037d8:	01800044 	movi	r6,1
 20037dc:	a1800115 	stw	r6,4(r20)
 20037e0:	a5c00215 	stw	r23,8(r20)
 20037e4:	a1000315 	stw	r4,12(r20)
 20037e8:	a0800415 	stw	r2,16(r20)
 20037ec:	003f8206 	br	20035f8 <_fpadd_parts+0x124>
 20037f0:	203f7226 	beq	r4,zero,20035bc <_fpadd_parts+0xe8>
 20037f4:	35bff804 	addi	r22,r6,-32
 20037f8:	b9af883a 	add	r23,r23,r6
 20037fc:	b0003116 	blt	r22,zero,20038c4 <_fpadd_parts+0x3f0>
 2003800:	959ad83a 	srl	r13,r18,r22
 2003804:	001d883a 	mov	r14,zero
 2003808:	000f883a 	mov	r7,zero
 200380c:	01000044 	movi	r4,1
 2003810:	0011883a 	mov	r8,zero
 2003814:	b0002516 	blt	r22,zero,20038ac <_fpadd_parts+0x3d8>
 2003818:	2594983a 	sll	r10,r4,r22
 200381c:	0013883a 	mov	r9,zero
 2003820:	00bfffc4 	movi	r2,-1
 2003824:	4889883a 	add	r4,r9,r2
 2003828:	508b883a 	add	r5,r10,r2
 200382c:	224d803a 	cmpltu	r6,r4,r9
 2003830:	314b883a 	add	r5,r6,r5
 2003834:	8904703a 	and	r2,r17,r4
 2003838:	9146703a 	and	r3,r18,r5
 200383c:	10c4b03a 	or	r2,r2,r3
 2003840:	10000226 	beq	r2,zero,200384c <_fpadd_parts+0x378>
 2003844:	01c00044 	movi	r7,1
 2003848:	0011883a 	mov	r8,zero
 200384c:	69e2b03a 	or	r17,r13,r7
 2003850:	7224b03a 	or	r18,r14,r8
 2003854:	003f5906 	br	20035bc <_fpadd_parts+0xe8>
 2003858:	8407883a 	add	r3,r16,r16
 200385c:	008007c4 	movi	r2,31
 2003860:	1185c83a 	sub	r2,r2,r6
 2003864:	1886983a 	sll	r3,r3,r2
 2003868:	7996d83a 	srl	r11,r15,r6
 200386c:	8198d83a 	srl	r12,r16,r6
 2003870:	1ad6b03a 	or	r11,r3,r11
 2003874:	003f3e06 	br	2003570 <_fpadd_parts+0x9c>
 2003878:	2006d07a 	srli	r3,r4,1
 200387c:	008007c4 	movi	r2,31
 2003880:	1185c83a 	sub	r2,r2,r6
 2003884:	1890d83a 	srl	r8,r3,r2
 2003888:	218e983a 	sll	r7,r4,r6
 200388c:	003f3e06 	br	2003588 <_fpadd_parts+0xb4>
 2003890:	113f821e 	bne	r2,r4,200369c <_fpadd_parts+0x1c8>
 2003894:	28c00117 	ldw	r3,4(r5)
 2003898:	98800117 	ldw	r2,4(r19)
 200389c:	10ff7f26 	beq	r2,r3,200369c <_fpadd_parts+0x1c8>
 20038a0:	04c08074 	movhi	r19,513
 20038a4:	9cce1104 	addi	r19,r19,14404
 20038a8:	003f7c06 	br	200369c <_fpadd_parts+0x1c8>
 20038ac:	2006d07a 	srli	r3,r4,1
 20038b0:	008007c4 	movi	r2,31
 20038b4:	1185c83a 	sub	r2,r2,r6
 20038b8:	1894d83a 	srl	r10,r3,r2
 20038bc:	2192983a 	sll	r9,r4,r6
 20038c0:	003fd706 	br	2003820 <_fpadd_parts+0x34c>
 20038c4:	9487883a 	add	r3,r18,r18
 20038c8:	008007c4 	movi	r2,31
 20038cc:	1185c83a 	sub	r2,r2,r6
 20038d0:	1886983a 	sll	r3,r3,r2
 20038d4:	899ad83a 	srl	r13,r17,r6
 20038d8:	919cd83a 	srl	r14,r18,r6
 20038dc:	1b5ab03a 	or	r13,r3,r13
 20038e0:	003fc906 	br	2003808 <_fpadd_parts+0x334>

020038e4 <__subdf3>:
 20038e4:	deffea04 	addi	sp,sp,-88
 20038e8:	dcc01415 	stw	r19,80(sp)
 20038ec:	dcc00404 	addi	r19,sp,16
 20038f0:	2011883a 	mov	r8,r4
 20038f4:	2813883a 	mov	r9,r5
 20038f8:	dc401315 	stw	r17,76(sp)
 20038fc:	d809883a 	mov	r4,sp
 2003900:	980b883a 	mov	r5,r19
 2003904:	dc400904 	addi	r17,sp,36
 2003908:	dfc01515 	stw	ra,84(sp)
 200390c:	da400115 	stw	r9,4(sp)
 2003910:	d9c00315 	stw	r7,12(sp)
 2003914:	da000015 	stw	r8,0(sp)
 2003918:	d9800215 	stw	r6,8(sp)
 200391c:	2004cac0 	call	2004cac <__unpack_d>
 2003920:	d9000204 	addi	r4,sp,8
 2003924:	880b883a 	mov	r5,r17
 2003928:	2004cac0 	call	2004cac <__unpack_d>
 200392c:	d8800a17 	ldw	r2,40(sp)
 2003930:	880b883a 	mov	r5,r17
 2003934:	9809883a 	mov	r4,r19
 2003938:	d9800e04 	addi	r6,sp,56
 200393c:	1080005c 	xori	r2,r2,1
 2003940:	d8800a15 	stw	r2,40(sp)
 2003944:	20034d40 	call	20034d4 <_fpadd_parts>
 2003948:	1009883a 	mov	r4,r2
 200394c:	20049980 	call	2004998 <__pack_d>
 2003950:	dfc01517 	ldw	ra,84(sp)
 2003954:	dcc01417 	ldw	r19,80(sp)
 2003958:	dc401317 	ldw	r17,76(sp)
 200395c:	dec01604 	addi	sp,sp,88
 2003960:	f800283a 	ret

02003964 <__adddf3>:
 2003964:	deffea04 	addi	sp,sp,-88
 2003968:	dcc01415 	stw	r19,80(sp)
 200396c:	dcc00404 	addi	r19,sp,16
 2003970:	2011883a 	mov	r8,r4
 2003974:	2813883a 	mov	r9,r5
 2003978:	dc401315 	stw	r17,76(sp)
 200397c:	d809883a 	mov	r4,sp
 2003980:	980b883a 	mov	r5,r19
 2003984:	dc400904 	addi	r17,sp,36
 2003988:	dfc01515 	stw	ra,84(sp)
 200398c:	da400115 	stw	r9,4(sp)
 2003990:	d9c00315 	stw	r7,12(sp)
 2003994:	da000015 	stw	r8,0(sp)
 2003998:	d9800215 	stw	r6,8(sp)
 200399c:	2004cac0 	call	2004cac <__unpack_d>
 20039a0:	d9000204 	addi	r4,sp,8
 20039a4:	880b883a 	mov	r5,r17
 20039a8:	2004cac0 	call	2004cac <__unpack_d>
 20039ac:	d9800e04 	addi	r6,sp,56
 20039b0:	9809883a 	mov	r4,r19
 20039b4:	880b883a 	mov	r5,r17
 20039b8:	20034d40 	call	20034d4 <_fpadd_parts>
 20039bc:	1009883a 	mov	r4,r2
 20039c0:	20049980 	call	2004998 <__pack_d>
 20039c4:	dfc01517 	ldw	ra,84(sp)
 20039c8:	dcc01417 	ldw	r19,80(sp)
 20039cc:	dc401317 	ldw	r17,76(sp)
 20039d0:	dec01604 	addi	sp,sp,88
 20039d4:	f800283a 	ret

020039d8 <__muldf3>:
 20039d8:	deffe004 	addi	sp,sp,-128
 20039dc:	dc401815 	stw	r17,96(sp)
 20039e0:	dc400404 	addi	r17,sp,16
 20039e4:	2011883a 	mov	r8,r4
 20039e8:	2813883a 	mov	r9,r5
 20039ec:	dc001715 	stw	r16,92(sp)
 20039f0:	d809883a 	mov	r4,sp
 20039f4:	880b883a 	mov	r5,r17
 20039f8:	dc000904 	addi	r16,sp,36
 20039fc:	dfc01f15 	stw	ra,124(sp)
 2003a00:	da400115 	stw	r9,4(sp)
 2003a04:	d9c00315 	stw	r7,12(sp)
 2003a08:	da000015 	stw	r8,0(sp)
 2003a0c:	d9800215 	stw	r6,8(sp)
 2003a10:	ddc01e15 	stw	r23,120(sp)
 2003a14:	dd801d15 	stw	r22,116(sp)
 2003a18:	dd401c15 	stw	r21,112(sp)
 2003a1c:	dd001b15 	stw	r20,108(sp)
 2003a20:	dcc01a15 	stw	r19,104(sp)
 2003a24:	dc801915 	stw	r18,100(sp)
 2003a28:	2004cac0 	call	2004cac <__unpack_d>
 2003a2c:	d9000204 	addi	r4,sp,8
 2003a30:	800b883a 	mov	r5,r16
 2003a34:	2004cac0 	call	2004cac <__unpack_d>
 2003a38:	d9000417 	ldw	r4,16(sp)
 2003a3c:	00800044 	movi	r2,1
 2003a40:	1100102e 	bgeu	r2,r4,2003a84 <__muldf3+0xac>
 2003a44:	d8c00917 	ldw	r3,36(sp)
 2003a48:	10c0062e 	bgeu	r2,r3,2003a64 <__muldf3+0x8c>
 2003a4c:	00800104 	movi	r2,4
 2003a50:	20800a26 	beq	r4,r2,2003a7c <__muldf3+0xa4>
 2003a54:	1880cc26 	beq	r3,r2,2003d88 <__muldf3+0x3b0>
 2003a58:	00800084 	movi	r2,2
 2003a5c:	20800926 	beq	r4,r2,2003a84 <__muldf3+0xac>
 2003a60:	1880191e 	bne	r3,r2,2003ac8 <__muldf3+0xf0>
 2003a64:	d8c00a17 	ldw	r3,40(sp)
 2003a68:	d8800517 	ldw	r2,20(sp)
 2003a6c:	8009883a 	mov	r4,r16
 2003a70:	10c4c03a 	cmpne	r2,r2,r3
 2003a74:	d8800a15 	stw	r2,40(sp)
 2003a78:	00000706 	br	2003a98 <__muldf3+0xc0>
 2003a7c:	00800084 	movi	r2,2
 2003a80:	1880c326 	beq	r3,r2,2003d90 <__muldf3+0x3b8>
 2003a84:	d8800517 	ldw	r2,20(sp)
 2003a88:	d8c00a17 	ldw	r3,40(sp)
 2003a8c:	8809883a 	mov	r4,r17
 2003a90:	10c4c03a 	cmpne	r2,r2,r3
 2003a94:	d8800515 	stw	r2,20(sp)
 2003a98:	20049980 	call	2004998 <__pack_d>
 2003a9c:	dfc01f17 	ldw	ra,124(sp)
 2003aa0:	ddc01e17 	ldw	r23,120(sp)
 2003aa4:	dd801d17 	ldw	r22,116(sp)
 2003aa8:	dd401c17 	ldw	r21,112(sp)
 2003aac:	dd001b17 	ldw	r20,108(sp)
 2003ab0:	dcc01a17 	ldw	r19,104(sp)
 2003ab4:	dc801917 	ldw	r18,100(sp)
 2003ab8:	dc401817 	ldw	r17,96(sp)
 2003abc:	dc001717 	ldw	r16,92(sp)
 2003ac0:	dec02004 	addi	sp,sp,128
 2003ac4:	f800283a 	ret
 2003ac8:	dd800717 	ldw	r22,28(sp)
 2003acc:	dc800c17 	ldw	r18,48(sp)
 2003ad0:	002b883a 	mov	r21,zero
 2003ad4:	0023883a 	mov	r17,zero
 2003ad8:	a80b883a 	mov	r5,r21
 2003adc:	b00d883a 	mov	r6,r22
 2003ae0:	880f883a 	mov	r7,r17
 2003ae4:	ddc00817 	ldw	r23,32(sp)
 2003ae8:	dcc00d17 	ldw	r19,52(sp)
 2003aec:	9009883a 	mov	r4,r18
 2003af0:	20044e00 	call	20044e0 <__muldi3>
 2003af4:	001b883a 	mov	r13,zero
 2003af8:	680f883a 	mov	r7,r13
 2003afc:	b009883a 	mov	r4,r22
 2003b00:	000b883a 	mov	r5,zero
 2003b04:	980d883a 	mov	r6,r19
 2003b08:	b82d883a 	mov	r22,r23
 2003b0c:	002f883a 	mov	r23,zero
 2003b10:	db401615 	stw	r13,88(sp)
 2003b14:	d8801315 	stw	r2,76(sp)
 2003b18:	d8c01415 	stw	r3,80(sp)
 2003b1c:	dcc01515 	stw	r19,84(sp)
 2003b20:	20044e00 	call	20044e0 <__muldi3>
 2003b24:	b00d883a 	mov	r6,r22
 2003b28:	000b883a 	mov	r5,zero
 2003b2c:	9009883a 	mov	r4,r18
 2003b30:	b80f883a 	mov	r7,r23
 2003b34:	1021883a 	mov	r16,r2
 2003b38:	1823883a 	mov	r17,r3
 2003b3c:	20044e00 	call	20044e0 <__muldi3>
 2003b40:	8085883a 	add	r2,r16,r2
 2003b44:	140d803a 	cmpltu	r6,r2,r16
 2003b48:	88c7883a 	add	r3,r17,r3
 2003b4c:	30cd883a 	add	r6,r6,r3
 2003b50:	1029883a 	mov	r20,r2
 2003b54:	302b883a 	mov	r21,r6
 2003b58:	da801317 	ldw	r10,76(sp)
 2003b5c:	dac01417 	ldw	r11,80(sp)
 2003b60:	db001517 	ldw	r12,84(sp)
 2003b64:	db401617 	ldw	r13,88(sp)
 2003b68:	3440612e 	bgeu	r6,r17,2003cf0 <__muldf3+0x318>
 2003b6c:	0009883a 	mov	r4,zero
 2003b70:	5105883a 	add	r2,r10,r4
 2003b74:	128d803a 	cmpltu	r6,r2,r10
 2003b78:	5d07883a 	add	r3,r11,r20
 2003b7c:	30cd883a 	add	r6,r6,r3
 2003b80:	0021883a 	mov	r16,zero
 2003b84:	04400044 	movi	r17,1
 2003b88:	1025883a 	mov	r18,r2
 2003b8c:	3027883a 	mov	r19,r6
 2003b90:	32c06236 	bltu	r6,r11,2003d1c <__muldf3+0x344>
 2003b94:	59807a26 	beq	r11,r6,2003d80 <__muldf3+0x3a8>
 2003b98:	680b883a 	mov	r5,r13
 2003b9c:	b80f883a 	mov	r7,r23
 2003ba0:	6009883a 	mov	r4,r12
 2003ba4:	b00d883a 	mov	r6,r22
 2003ba8:	20044e00 	call	20044e0 <__muldi3>
 2003bac:	1009883a 	mov	r4,r2
 2003bb0:	000f883a 	mov	r7,zero
 2003bb4:	1545883a 	add	r2,r2,r21
 2003bb8:	1111803a 	cmpltu	r8,r2,r4
 2003bbc:	19c7883a 	add	r3,r3,r7
 2003bc0:	40c7883a 	add	r3,r8,r3
 2003bc4:	88cb883a 	add	r5,r17,r3
 2003bc8:	d8c00617 	ldw	r3,24(sp)
 2003bcc:	8089883a 	add	r4,r16,r2
 2003bd0:	d8800b17 	ldw	r2,44(sp)
 2003bd4:	18c00104 	addi	r3,r3,4
 2003bd8:	240d803a 	cmpltu	r6,r4,r16
 2003bdc:	10c7883a 	add	r3,r2,r3
 2003be0:	2013883a 	mov	r9,r4
 2003be4:	d8800a17 	ldw	r2,40(sp)
 2003be8:	d9000517 	ldw	r4,20(sp)
 2003bec:	314d883a 	add	r6,r6,r5
 2003bf0:	3015883a 	mov	r10,r6
 2003bf4:	2088c03a 	cmpne	r4,r4,r2
 2003bf8:	00880034 	movhi	r2,8192
 2003bfc:	10bfffc4 	addi	r2,r2,-1
 2003c00:	d9000f15 	stw	r4,60(sp)
 2003c04:	d8c01015 	stw	r3,64(sp)
 2003c08:	1180162e 	bgeu	r2,r6,2003c64 <__muldf3+0x28c>
 2003c0c:	1811883a 	mov	r8,r3
 2003c10:	101f883a 	mov	r15,r2
 2003c14:	980497fa 	slli	r2,r19,31
 2003c18:	9016d07a 	srli	r11,r18,1
 2003c1c:	500697fa 	slli	r3,r10,31
 2003c20:	480cd07a 	srli	r6,r9,1
 2003c24:	500ed07a 	srli	r7,r10,1
 2003c28:	12d6b03a 	or	r11,r2,r11
 2003c2c:	00800044 	movi	r2,1
 2003c30:	198cb03a 	or	r6,r3,r6
 2003c34:	4888703a 	and	r4,r9,r2
 2003c38:	9818d07a 	srli	r12,r19,1
 2003c3c:	001b883a 	mov	r13,zero
 2003c40:	03a00034 	movhi	r14,32768
 2003c44:	3013883a 	mov	r9,r6
 2003c48:	3815883a 	mov	r10,r7
 2003c4c:	4091883a 	add	r8,r8,r2
 2003c50:	20000226 	beq	r4,zero,2003c5c <__muldf3+0x284>
 2003c54:	5b64b03a 	or	r18,r11,r13
 2003c58:	63a6b03a 	or	r19,r12,r14
 2003c5c:	7abfed36 	bltu	r15,r10,2003c14 <__muldf3+0x23c>
 2003c60:	da001015 	stw	r8,64(sp)
 2003c64:	00840034 	movhi	r2,4096
 2003c68:	10bfffc4 	addi	r2,r2,-1
 2003c6c:	12801436 	bltu	r2,r10,2003cc0 <__muldf3+0x2e8>
 2003c70:	da001017 	ldw	r8,64(sp)
 2003c74:	101f883a 	mov	r15,r2
 2003c78:	4a45883a 	add	r2,r9,r9
 2003c7c:	124d803a 	cmpltu	r6,r2,r9
 2003c80:	5287883a 	add	r3,r10,r10
 2003c84:	9497883a 	add	r11,r18,r18
 2003c88:	5c8f803a 	cmpltu	r7,r11,r18
 2003c8c:	9cd9883a 	add	r12,r19,r19
 2003c90:	01000044 	movi	r4,1
 2003c94:	30cd883a 	add	r6,r6,r3
 2003c98:	3b0f883a 	add	r7,r7,r12
 2003c9c:	423fffc4 	addi	r8,r8,-1
 2003ca0:	1013883a 	mov	r9,r2
 2003ca4:	3015883a 	mov	r10,r6
 2003ca8:	111ab03a 	or	r13,r2,r4
 2003cac:	98003016 	blt	r19,zero,2003d70 <__muldf3+0x398>
 2003cb0:	5825883a 	mov	r18,r11
 2003cb4:	3827883a 	mov	r19,r7
 2003cb8:	7abfef2e 	bgeu	r15,r10,2003c78 <__muldf3+0x2a0>
 2003cbc:	da001015 	stw	r8,64(sp)
 2003cc0:	00803fc4 	movi	r2,255
 2003cc4:	488e703a 	and	r7,r9,r2
 2003cc8:	00802004 	movi	r2,128
 2003ccc:	0007883a 	mov	r3,zero
 2003cd0:	0011883a 	mov	r8,zero
 2003cd4:	38801826 	beq	r7,r2,2003d38 <__muldf3+0x360>
 2003cd8:	008000c4 	movi	r2,3
 2003cdc:	d9000e04 	addi	r4,sp,56
 2003ce0:	da801215 	stw	r10,72(sp)
 2003ce4:	d8800e15 	stw	r2,56(sp)
 2003ce8:	da401115 	stw	r9,68(sp)
 2003cec:	003f6a06 	br	2003a98 <__muldf3+0xc0>
 2003cf0:	89802126 	beq	r17,r6,2003d78 <__muldf3+0x3a0>
 2003cf4:	0009883a 	mov	r4,zero
 2003cf8:	5105883a 	add	r2,r10,r4
 2003cfc:	128d803a 	cmpltu	r6,r2,r10
 2003d00:	5d07883a 	add	r3,r11,r20
 2003d04:	30cd883a 	add	r6,r6,r3
 2003d08:	0021883a 	mov	r16,zero
 2003d0c:	0023883a 	mov	r17,zero
 2003d10:	1025883a 	mov	r18,r2
 2003d14:	3027883a 	mov	r19,r6
 2003d18:	32ff9e2e 	bgeu	r6,r11,2003b94 <__muldf3+0x1bc>
 2003d1c:	00800044 	movi	r2,1
 2003d20:	8089883a 	add	r4,r16,r2
 2003d24:	240d803a 	cmpltu	r6,r4,r16
 2003d28:	344d883a 	add	r6,r6,r17
 2003d2c:	2021883a 	mov	r16,r4
 2003d30:	3023883a 	mov	r17,r6
 2003d34:	003f9806 	br	2003b98 <__muldf3+0x1c0>
 2003d38:	403fe71e 	bne	r8,zero,2003cd8 <__muldf3+0x300>
 2003d3c:	01004004 	movi	r4,256
 2003d40:	4904703a 	and	r2,r9,r4
 2003d44:	10c4b03a 	or	r2,r2,r3
 2003d48:	103fe31e 	bne	r2,zero,2003cd8 <__muldf3+0x300>
 2003d4c:	94c4b03a 	or	r2,r18,r19
 2003d50:	103fe126 	beq	r2,zero,2003cd8 <__muldf3+0x300>
 2003d54:	49c5883a 	add	r2,r9,r7
 2003d58:	1251803a 	cmpltu	r8,r2,r9
 2003d5c:	4291883a 	add	r8,r8,r10
 2003d60:	013fc004 	movi	r4,-256
 2003d64:	1112703a 	and	r9,r2,r4
 2003d68:	4015883a 	mov	r10,r8
 2003d6c:	003fda06 	br	2003cd8 <__muldf3+0x300>
 2003d70:	6813883a 	mov	r9,r13
 2003d74:	003fce06 	br	2003cb0 <__muldf3+0x2d8>
 2003d78:	143f7c36 	bltu	r2,r16,2003b6c <__muldf3+0x194>
 2003d7c:	003fdd06 	br	2003cf4 <__muldf3+0x31c>
 2003d80:	12bf852e 	bgeu	r2,r10,2003b98 <__muldf3+0x1c0>
 2003d84:	003fe506 	br	2003d1c <__muldf3+0x344>
 2003d88:	00800084 	movi	r2,2
 2003d8c:	20bf351e 	bne	r4,r2,2003a64 <__muldf3+0x8c>
 2003d90:	01008074 	movhi	r4,513
 2003d94:	210e1104 	addi	r4,r4,14404
 2003d98:	003f3f06 	br	2003a98 <__muldf3+0xc0>

02003d9c <__divdf3>:
 2003d9c:	deffed04 	addi	sp,sp,-76
 2003da0:	dcc01115 	stw	r19,68(sp)
 2003da4:	dcc00404 	addi	r19,sp,16
 2003da8:	2011883a 	mov	r8,r4
 2003dac:	2813883a 	mov	r9,r5
 2003db0:	dc000e15 	stw	r16,56(sp)
 2003db4:	d809883a 	mov	r4,sp
 2003db8:	980b883a 	mov	r5,r19
 2003dbc:	dc000904 	addi	r16,sp,36
 2003dc0:	dfc01215 	stw	ra,72(sp)
 2003dc4:	da400115 	stw	r9,4(sp)
 2003dc8:	d9c00315 	stw	r7,12(sp)
 2003dcc:	da000015 	stw	r8,0(sp)
 2003dd0:	d9800215 	stw	r6,8(sp)
 2003dd4:	dc801015 	stw	r18,64(sp)
 2003dd8:	dc400f15 	stw	r17,60(sp)
 2003ddc:	2004cac0 	call	2004cac <__unpack_d>
 2003de0:	d9000204 	addi	r4,sp,8
 2003de4:	800b883a 	mov	r5,r16
 2003de8:	2004cac0 	call	2004cac <__unpack_d>
 2003dec:	d9000417 	ldw	r4,16(sp)
 2003df0:	00800044 	movi	r2,1
 2003df4:	11000b2e 	bgeu	r2,r4,2003e24 <__divdf3+0x88>
 2003df8:	d9400917 	ldw	r5,36(sp)
 2003dfc:	1140762e 	bgeu	r2,r5,2003fd8 <__divdf3+0x23c>
 2003e00:	d8800517 	ldw	r2,20(sp)
 2003e04:	d8c00a17 	ldw	r3,40(sp)
 2003e08:	01800104 	movi	r6,4
 2003e0c:	10c4f03a 	xor	r2,r2,r3
 2003e10:	d8800515 	stw	r2,20(sp)
 2003e14:	21800226 	beq	r4,r6,2003e20 <__divdf3+0x84>
 2003e18:	00800084 	movi	r2,2
 2003e1c:	2080141e 	bne	r4,r2,2003e70 <__divdf3+0xd4>
 2003e20:	29000926 	beq	r5,r4,2003e48 <__divdf3+0xac>
 2003e24:	9809883a 	mov	r4,r19
 2003e28:	20049980 	call	2004998 <__pack_d>
 2003e2c:	dfc01217 	ldw	ra,72(sp)
 2003e30:	dcc01117 	ldw	r19,68(sp)
 2003e34:	dc801017 	ldw	r18,64(sp)
 2003e38:	dc400f17 	ldw	r17,60(sp)
 2003e3c:	dc000e17 	ldw	r16,56(sp)
 2003e40:	dec01304 	addi	sp,sp,76
 2003e44:	f800283a 	ret
 2003e48:	01008074 	movhi	r4,513
 2003e4c:	210e1104 	addi	r4,r4,14404
 2003e50:	20049980 	call	2004998 <__pack_d>
 2003e54:	dfc01217 	ldw	ra,72(sp)
 2003e58:	dcc01117 	ldw	r19,68(sp)
 2003e5c:	dc801017 	ldw	r18,64(sp)
 2003e60:	dc400f17 	ldw	r17,60(sp)
 2003e64:	dc000e17 	ldw	r16,56(sp)
 2003e68:	dec01304 	addi	sp,sp,76
 2003e6c:	f800283a 	ret
 2003e70:	29805b26 	beq	r5,r6,2003fe0 <__divdf3+0x244>
 2003e74:	28802d26 	beq	r5,r2,2003f2c <__divdf3+0x190>
 2003e78:	d8c00617 	ldw	r3,24(sp)
 2003e7c:	d8800b17 	ldw	r2,44(sp)
 2003e80:	d9c00817 	ldw	r7,32(sp)
 2003e84:	dc400d17 	ldw	r17,52(sp)
 2003e88:	188bc83a 	sub	r5,r3,r2
 2003e8c:	d9800717 	ldw	r6,28(sp)
 2003e90:	dc000c17 	ldw	r16,48(sp)
 2003e94:	d9400615 	stw	r5,24(sp)
 2003e98:	3c403836 	bltu	r7,r17,2003f7c <__divdf3+0x1e0>
 2003e9c:	89c03626 	beq	r17,r7,2003f78 <__divdf3+0x1dc>
 2003ea0:	0015883a 	mov	r10,zero
 2003ea4:	001d883a 	mov	r14,zero
 2003ea8:	02c40034 	movhi	r11,4096
 2003eac:	001f883a 	mov	r15,zero
 2003eb0:	003f883a 	mov	ra,zero
 2003eb4:	04800f44 	movi	r18,61
 2003eb8:	00000f06 	br	2003ef8 <__divdf3+0x15c>
 2003ebc:	601d883a 	mov	r14,r12
 2003ec0:	681f883a 	mov	r15,r13
 2003ec4:	400d883a 	mov	r6,r8
 2003ec8:	100f883a 	mov	r7,r2
 2003ecc:	3191883a 	add	r8,r6,r6
 2003ed0:	5808d07a 	srli	r4,r11,1
 2003ed4:	4185803a 	cmpltu	r2,r8,r6
 2003ed8:	39d3883a 	add	r9,r7,r7
 2003edc:	28c6b03a 	or	r3,r5,r3
 2003ee0:	1245883a 	add	r2,r2,r9
 2003ee4:	1815883a 	mov	r10,r3
 2003ee8:	2017883a 	mov	r11,r4
 2003eec:	400d883a 	mov	r6,r8
 2003ef0:	100f883a 	mov	r7,r2
 2003ef4:	fc801726 	beq	ra,r18,2003f54 <__divdf3+0x1b8>
 2003ef8:	580a97fa 	slli	r5,r11,31
 2003efc:	5006d07a 	srli	r3,r10,1
 2003f00:	ffc00044 	addi	ra,ra,1
 2003f04:	3c7ff136 	bltu	r7,r17,2003ecc <__divdf3+0x130>
 2003f08:	3411c83a 	sub	r8,r6,r16
 2003f0c:	3205803a 	cmpltu	r2,r6,r8
 2003f10:	3c53c83a 	sub	r9,r7,r17
 2003f14:	7298b03a 	or	r12,r14,r10
 2003f18:	7adab03a 	or	r13,r15,r11
 2003f1c:	4885c83a 	sub	r2,r9,r2
 2003f20:	89ffe61e 	bne	r17,r7,2003ebc <__divdf3+0x120>
 2003f24:	343fe936 	bltu	r6,r16,2003ecc <__divdf3+0x130>
 2003f28:	003fe406 	br	2003ebc <__divdf3+0x120>
 2003f2c:	9809883a 	mov	r4,r19
 2003f30:	d9800415 	stw	r6,16(sp)
 2003f34:	20049980 	call	2004998 <__pack_d>
 2003f38:	dfc01217 	ldw	ra,72(sp)
 2003f3c:	dcc01117 	ldw	r19,68(sp)
 2003f40:	dc801017 	ldw	r18,64(sp)
 2003f44:	dc400f17 	ldw	r17,60(sp)
 2003f48:	dc000e17 	ldw	r16,56(sp)
 2003f4c:	dec01304 	addi	sp,sp,76
 2003f50:	f800283a 	ret
 2003f54:	00803fc4 	movi	r2,255
 2003f58:	7090703a 	and	r8,r14,r2
 2003f5c:	00802004 	movi	r2,128
 2003f60:	0007883a 	mov	r3,zero
 2003f64:	0013883a 	mov	r9,zero
 2003f68:	40800d26 	beq	r8,r2,2003fa0 <__divdf3+0x204>
 2003f6c:	dbc00815 	stw	r15,32(sp)
 2003f70:	db800715 	stw	r14,28(sp)
 2003f74:	003fab06 	br	2003e24 <__divdf3+0x88>
 2003f78:	343fc92e 	bgeu	r6,r16,2003ea0 <__divdf3+0x104>
 2003f7c:	3185883a 	add	r2,r6,r6
 2003f80:	1189803a 	cmpltu	r4,r2,r6
 2003f84:	39c7883a 	add	r3,r7,r7
 2003f88:	20c9883a 	add	r4,r4,r3
 2003f8c:	297fffc4 	addi	r5,r5,-1
 2003f90:	100d883a 	mov	r6,r2
 2003f94:	200f883a 	mov	r7,r4
 2003f98:	d9400615 	stw	r5,24(sp)
 2003f9c:	003fc006 	br	2003ea0 <__divdf3+0x104>
 2003fa0:	483ff21e 	bne	r9,zero,2003f6c <__divdf3+0x1d0>
 2003fa4:	01004004 	movi	r4,256
 2003fa8:	7104703a 	and	r2,r14,r4
 2003fac:	10c4b03a 	or	r2,r2,r3
 2003fb0:	103fee1e 	bne	r2,zero,2003f6c <__divdf3+0x1d0>
 2003fb4:	31c4b03a 	or	r2,r6,r7
 2003fb8:	103fec26 	beq	r2,zero,2003f6c <__divdf3+0x1d0>
 2003fbc:	7205883a 	add	r2,r14,r8
 2003fc0:	1391803a 	cmpltu	r8,r2,r14
 2003fc4:	43d1883a 	add	r8,r8,r15
 2003fc8:	013fc004 	movi	r4,-256
 2003fcc:	111c703a 	and	r14,r2,r4
 2003fd0:	401f883a 	mov	r15,r8
 2003fd4:	003fe506 	br	2003f6c <__divdf3+0x1d0>
 2003fd8:	8009883a 	mov	r4,r16
 2003fdc:	003f9206 	br	2003e28 <__divdf3+0x8c>
 2003fe0:	9809883a 	mov	r4,r19
 2003fe4:	d8000715 	stw	zero,28(sp)
 2003fe8:	d8000815 	stw	zero,32(sp)
 2003fec:	d8000615 	stw	zero,24(sp)
 2003ff0:	003f8d06 	br	2003e28 <__divdf3+0x8c>

02003ff4 <__ltdf2>:
 2003ff4:	deffef04 	addi	sp,sp,-68
 2003ff8:	dc400f15 	stw	r17,60(sp)
 2003ffc:	dc400404 	addi	r17,sp,16
 2004000:	2005883a 	mov	r2,r4
 2004004:	2807883a 	mov	r3,r5
 2004008:	dc000e15 	stw	r16,56(sp)
 200400c:	d809883a 	mov	r4,sp
 2004010:	880b883a 	mov	r5,r17
 2004014:	dc000904 	addi	r16,sp,36
 2004018:	d8c00115 	stw	r3,4(sp)
 200401c:	d8800015 	stw	r2,0(sp)
 2004020:	d9800215 	stw	r6,8(sp)
 2004024:	dfc01015 	stw	ra,64(sp)
 2004028:	d9c00315 	stw	r7,12(sp)
 200402c:	2004cac0 	call	2004cac <__unpack_d>
 2004030:	d9000204 	addi	r4,sp,8
 2004034:	800b883a 	mov	r5,r16
 2004038:	2004cac0 	call	2004cac <__unpack_d>
 200403c:	d8800417 	ldw	r2,16(sp)
 2004040:	00c00044 	movi	r3,1
 2004044:	180d883a 	mov	r6,r3
 2004048:	1880062e 	bgeu	r3,r2,2004064 <__ltdf2+0x70>
 200404c:	d8800917 	ldw	r2,36(sp)
 2004050:	8809883a 	mov	r4,r17
 2004054:	800b883a 	mov	r5,r16
 2004058:	1880022e 	bgeu	r3,r2,2004064 <__ltdf2+0x70>
 200405c:	2004de40 	call	2004de4 <__fpcmp_parts_d>
 2004060:	100d883a 	mov	r6,r2
 2004064:	3005883a 	mov	r2,r6
 2004068:	dfc01017 	ldw	ra,64(sp)
 200406c:	dc400f17 	ldw	r17,60(sp)
 2004070:	dc000e17 	ldw	r16,56(sp)
 2004074:	dec01104 	addi	sp,sp,68
 2004078:	f800283a 	ret

0200407c <__fixdfsi>:
 200407c:	defff804 	addi	sp,sp,-32
 2004080:	2005883a 	mov	r2,r4
 2004084:	2807883a 	mov	r3,r5
 2004088:	d809883a 	mov	r4,sp
 200408c:	d9400204 	addi	r5,sp,8
 2004090:	d8c00115 	stw	r3,4(sp)
 2004094:	d8800015 	stw	r2,0(sp)
 2004098:	dfc00715 	stw	ra,28(sp)
 200409c:	2004cac0 	call	2004cac <__unpack_d>
 20040a0:	d8c00217 	ldw	r3,8(sp)
 20040a4:	00800084 	movi	r2,2
 20040a8:	1880051e 	bne	r3,r2,20040c0 <__fixdfsi+0x44>
 20040ac:	0007883a 	mov	r3,zero
 20040b0:	1805883a 	mov	r2,r3
 20040b4:	dfc00717 	ldw	ra,28(sp)
 20040b8:	dec00804 	addi	sp,sp,32
 20040bc:	f800283a 	ret
 20040c0:	00800044 	movi	r2,1
 20040c4:	10fff92e 	bgeu	r2,r3,20040ac <__fixdfsi+0x30>
 20040c8:	00800104 	movi	r2,4
 20040cc:	18800426 	beq	r3,r2,20040e0 <__fixdfsi+0x64>
 20040d0:	d8c00417 	ldw	r3,16(sp)
 20040d4:	183ff516 	blt	r3,zero,20040ac <__fixdfsi+0x30>
 20040d8:	00800784 	movi	r2,30
 20040dc:	10c0080e 	bge	r2,r3,2004100 <__fixdfsi+0x84>
 20040e0:	d8800317 	ldw	r2,12(sp)
 20040e4:	1000121e 	bne	r2,zero,2004130 <__fixdfsi+0xb4>
 20040e8:	00e00034 	movhi	r3,32768
 20040ec:	18ffffc4 	addi	r3,r3,-1
 20040f0:	1805883a 	mov	r2,r3
 20040f4:	dfc00717 	ldw	ra,28(sp)
 20040f8:	dec00804 	addi	sp,sp,32
 20040fc:	f800283a 	ret
 2004100:	00800f04 	movi	r2,60
 2004104:	10d1c83a 	sub	r8,r2,r3
 2004108:	40bff804 	addi	r2,r8,-32
 200410c:	d9800517 	ldw	r6,20(sp)
 2004110:	d9c00617 	ldw	r7,24(sp)
 2004114:	10000816 	blt	r2,zero,2004138 <__fixdfsi+0xbc>
 2004118:	3888d83a 	srl	r4,r7,r2
 200411c:	d8800317 	ldw	r2,12(sp)
 2004120:	2007883a 	mov	r3,r4
 2004124:	103fe226 	beq	r2,zero,20040b0 <__fixdfsi+0x34>
 2004128:	0107c83a 	sub	r3,zero,r4
 200412c:	003fe006 	br	20040b0 <__fixdfsi+0x34>
 2004130:	00e00034 	movhi	r3,32768
 2004134:	003fde06 	br	20040b0 <__fixdfsi+0x34>
 2004138:	39c7883a 	add	r3,r7,r7
 200413c:	008007c4 	movi	r2,31
 2004140:	1205c83a 	sub	r2,r2,r8
 2004144:	1886983a 	sll	r3,r3,r2
 2004148:	3208d83a 	srl	r4,r6,r8
 200414c:	1908b03a 	or	r4,r3,r4
 2004150:	003ff206 	br	200411c <__fixdfsi+0xa0>

02004154 <__make_dp>:
 2004154:	defff904 	addi	sp,sp,-28
 2004158:	d8c00717 	ldw	r3,28(sp)
 200415c:	d9000015 	stw	r4,0(sp)
 2004160:	d809883a 	mov	r4,sp
 2004164:	dfc00515 	stw	ra,20(sp)
 2004168:	d9c00615 	stw	r7,24(sp)
 200416c:	d9400115 	stw	r5,4(sp)
 2004170:	d9800215 	stw	r6,8(sp)
 2004174:	d8c00415 	stw	r3,16(sp)
 2004178:	d9c00315 	stw	r7,12(sp)
 200417c:	20049980 	call	2004998 <__pack_d>
 2004180:	dfc00517 	ldw	ra,20(sp)
 2004184:	dec00704 	addi	sp,sp,28
 2004188:	f800283a 	ret

0200418c <__truncdfsf2>:
 200418c:	defff804 	addi	sp,sp,-32
 2004190:	2005883a 	mov	r2,r4
 2004194:	2807883a 	mov	r3,r5
 2004198:	d809883a 	mov	r4,sp
 200419c:	d9400204 	addi	r5,sp,8
 20041a0:	d8c00115 	stw	r3,4(sp)
 20041a4:	d8800015 	stw	r2,0(sp)
 20041a8:	dfc00715 	stw	ra,28(sp)
 20041ac:	2004cac0 	call	2004cac <__unpack_d>
 20041b0:	d9c00517 	ldw	r7,20(sp)
 20041b4:	da000617 	ldw	r8,24(sp)
 20041b8:	02d00034 	movhi	r11,16384
 20041bc:	5affffc4 	addi	r11,r11,-1
 20041c0:	3812d7ba 	srli	r9,r7,30
 20041c4:	401a90ba 	slli	r13,r8,2
 20041c8:	3ac4703a 	and	r2,r7,r11
 20041cc:	0007883a 	mov	r3,zero
 20041d0:	6a52b03a 	or	r9,r13,r9
 20041d4:	10c4b03a 	or	r2,r2,r3
 20041d8:	d9000217 	ldw	r4,8(sp)
 20041dc:	d9400317 	ldw	r5,12(sp)
 20041e0:	d9800417 	ldw	r6,16(sp)
 20041e4:	480f883a 	mov	r7,r9
 20041e8:	10000126 	beq	r2,zero,20041f0 <__truncdfsf2+0x64>
 20041ec:	49c00054 	ori	r7,r9,1
 20041f0:	200496c0 	call	200496c <__make_fp>
 20041f4:	dfc00717 	ldw	ra,28(sp)
 20041f8:	dec00804 	addi	sp,sp,32
 20041fc:	f800283a 	ret

02004200 <__floatunsidf>:
 2004200:	defff204 	addi	sp,sp,-56
 2004204:	dfc00d15 	stw	ra,52(sp)
 2004208:	ddc00c15 	stw	r23,48(sp)
 200420c:	dd800b15 	stw	r22,44(sp)
 2004210:	dd400a15 	stw	r21,40(sp)
 2004214:	dd000915 	stw	r20,36(sp)
 2004218:	dcc00815 	stw	r19,32(sp)
 200421c:	dc800715 	stw	r18,28(sp)
 2004220:	dc400615 	stw	r17,24(sp)
 2004224:	dc000515 	stw	r16,20(sp)
 2004228:	d8000115 	stw	zero,4(sp)
 200422c:	20000f1e 	bne	r4,zero,200426c <__floatunsidf+0x6c>
 2004230:	00800084 	movi	r2,2
 2004234:	d8800015 	stw	r2,0(sp)
 2004238:	d809883a 	mov	r4,sp
 200423c:	20049980 	call	2004998 <__pack_d>
 2004240:	dfc00d17 	ldw	ra,52(sp)
 2004244:	ddc00c17 	ldw	r23,48(sp)
 2004248:	dd800b17 	ldw	r22,44(sp)
 200424c:	dd400a17 	ldw	r21,40(sp)
 2004250:	dd000917 	ldw	r20,36(sp)
 2004254:	dcc00817 	ldw	r19,32(sp)
 2004258:	dc800717 	ldw	r18,28(sp)
 200425c:	dc400617 	ldw	r17,24(sp)
 2004260:	dc000517 	ldw	r16,20(sp)
 2004264:	dec00e04 	addi	sp,sp,56
 2004268:	f800283a 	ret
 200426c:	008000c4 	movi	r2,3
 2004270:	00c00f04 	movi	r3,60
 2004274:	002f883a 	mov	r23,zero
 2004278:	202d883a 	mov	r22,r4
 200427c:	d8800015 	stw	r2,0(sp)
 2004280:	d8c00215 	stw	r3,8(sp)
 2004284:	d9000315 	stw	r4,12(sp)
 2004288:	ddc00415 	stw	r23,16(sp)
 200428c:	20045780 	call	2004578 <__clzsi2>
 2004290:	12400744 	addi	r9,r2,29
 2004294:	48000b16 	blt	r9,zero,20042c4 <__floatunsidf+0xc4>
 2004298:	483fe726 	beq	r9,zero,2004238 <__floatunsidf+0x38>
 200429c:	10bfff44 	addi	r2,r2,-3
 20042a0:	10002e16 	blt	r2,zero,200435c <__floatunsidf+0x15c>
 20042a4:	b0a2983a 	sll	r17,r22,r2
 20042a8:	0021883a 	mov	r16,zero
 20042ac:	d8800217 	ldw	r2,8(sp)
 20042b0:	dc400415 	stw	r17,16(sp)
 20042b4:	dc000315 	stw	r16,12(sp)
 20042b8:	1245c83a 	sub	r2,r2,r9
 20042bc:	d8800215 	stw	r2,8(sp)
 20042c0:	003fdd06 	br	2004238 <__floatunsidf+0x38>
 20042c4:	0255c83a 	sub	r10,zero,r9
 20042c8:	51bff804 	addi	r6,r10,-32
 20042cc:	30001b16 	blt	r6,zero,200433c <__floatunsidf+0x13c>
 20042d0:	b9a8d83a 	srl	r20,r23,r6
 20042d4:	002b883a 	mov	r21,zero
 20042d8:	000f883a 	mov	r7,zero
 20042dc:	01000044 	movi	r4,1
 20042e0:	0011883a 	mov	r8,zero
 20042e4:	30002516 	blt	r6,zero,200437c <__floatunsidf+0x17c>
 20042e8:	21a6983a 	sll	r19,r4,r6
 20042ec:	0025883a 	mov	r18,zero
 20042f0:	00bfffc4 	movi	r2,-1
 20042f4:	9089883a 	add	r4,r18,r2
 20042f8:	988b883a 	add	r5,r19,r2
 20042fc:	248d803a 	cmpltu	r6,r4,r18
 2004300:	314b883a 	add	r5,r6,r5
 2004304:	b104703a 	and	r2,r22,r4
 2004308:	b946703a 	and	r3,r23,r5
 200430c:	10c4b03a 	or	r2,r2,r3
 2004310:	10000226 	beq	r2,zero,200431c <__floatunsidf+0x11c>
 2004314:	01c00044 	movi	r7,1
 2004318:	0011883a 	mov	r8,zero
 200431c:	d9000217 	ldw	r4,8(sp)
 2004320:	a1c4b03a 	or	r2,r20,r7
 2004324:	aa06b03a 	or	r3,r21,r8
 2004328:	2249c83a 	sub	r4,r4,r9
 200432c:	d8c00415 	stw	r3,16(sp)
 2004330:	d9000215 	stw	r4,8(sp)
 2004334:	d8800315 	stw	r2,12(sp)
 2004338:	003fbf06 	br	2004238 <__floatunsidf+0x38>
 200433c:	bdc7883a 	add	r3,r23,r23
 2004340:	008007c4 	movi	r2,31
 2004344:	1285c83a 	sub	r2,r2,r10
 2004348:	1886983a 	sll	r3,r3,r2
 200434c:	b2a8d83a 	srl	r20,r22,r10
 2004350:	baaad83a 	srl	r21,r23,r10
 2004354:	1d28b03a 	or	r20,r3,r20
 2004358:	003fdf06 	br	20042d8 <__floatunsidf+0xd8>
 200435c:	b006d07a 	srli	r3,r22,1
 2004360:	008007c4 	movi	r2,31
 2004364:	1245c83a 	sub	r2,r2,r9
 2004368:	1886d83a 	srl	r3,r3,r2
 200436c:	ba62983a 	sll	r17,r23,r9
 2004370:	b260983a 	sll	r16,r22,r9
 2004374:	1c62b03a 	or	r17,r3,r17
 2004378:	003fcc06 	br	20042ac <__floatunsidf+0xac>
 200437c:	2006d07a 	srli	r3,r4,1
 2004380:	008007c4 	movi	r2,31
 2004384:	1285c83a 	sub	r2,r2,r10
 2004388:	18a6d83a 	srl	r19,r3,r2
 200438c:	22a4983a 	sll	r18,r4,r10
 2004390:	003fd706 	br	20042f0 <__floatunsidf+0xf0>

02004394 <udivmodsi4>:
 2004394:	29001b2e 	bgeu	r5,r4,2004404 <udivmodsi4+0x70>
 2004398:	28001a16 	blt	r5,zero,2004404 <udivmodsi4+0x70>
 200439c:	00800044 	movi	r2,1
 20043a0:	0007883a 	mov	r3,zero
 20043a4:	01c007c4 	movi	r7,31
 20043a8:	00000306 	br	20043b8 <udivmodsi4+0x24>
 20043ac:	19c01326 	beq	r3,r7,20043fc <udivmodsi4+0x68>
 20043b0:	18c00044 	addi	r3,r3,1
 20043b4:	28000416 	blt	r5,zero,20043c8 <udivmodsi4+0x34>
 20043b8:	294b883a 	add	r5,r5,r5
 20043bc:	1085883a 	add	r2,r2,r2
 20043c0:	293ffa36 	bltu	r5,r4,20043ac <udivmodsi4+0x18>
 20043c4:	10000d26 	beq	r2,zero,20043fc <udivmodsi4+0x68>
 20043c8:	0007883a 	mov	r3,zero
 20043cc:	21400236 	bltu	r4,r5,20043d8 <udivmodsi4+0x44>
 20043d0:	2149c83a 	sub	r4,r4,r5
 20043d4:	1886b03a 	or	r3,r3,r2
 20043d8:	1004d07a 	srli	r2,r2,1
 20043dc:	280ad07a 	srli	r5,r5,1
 20043e0:	103ffa1e 	bne	r2,zero,20043cc <udivmodsi4+0x38>
 20043e4:	30000226 	beq	r6,zero,20043f0 <udivmodsi4+0x5c>
 20043e8:	2005883a 	mov	r2,r4
 20043ec:	f800283a 	ret
 20043f0:	1809883a 	mov	r4,r3
 20043f4:	2005883a 	mov	r2,r4
 20043f8:	f800283a 	ret
 20043fc:	0007883a 	mov	r3,zero
 2004400:	003ff806 	br	20043e4 <udivmodsi4+0x50>
 2004404:	00800044 	movi	r2,1
 2004408:	0007883a 	mov	r3,zero
 200440c:	003fef06 	br	20043cc <udivmodsi4+0x38>

02004410 <__divsi3>:
 2004410:	defffe04 	addi	sp,sp,-8
 2004414:	dc000015 	stw	r16,0(sp)
 2004418:	dfc00115 	stw	ra,4(sp)
 200441c:	0021883a 	mov	r16,zero
 2004420:	20000c16 	blt	r4,zero,2004454 <__divsi3+0x44>
 2004424:	000d883a 	mov	r6,zero
 2004428:	28000e16 	blt	r5,zero,2004464 <__divsi3+0x54>
 200442c:	20043940 	call	2004394 <udivmodsi4>
 2004430:	1007883a 	mov	r3,r2
 2004434:	8005003a 	cmpeq	r2,r16,zero
 2004438:	1000011e 	bne	r2,zero,2004440 <__divsi3+0x30>
 200443c:	00c7c83a 	sub	r3,zero,r3
 2004440:	1805883a 	mov	r2,r3
 2004444:	dfc00117 	ldw	ra,4(sp)
 2004448:	dc000017 	ldw	r16,0(sp)
 200444c:	dec00204 	addi	sp,sp,8
 2004450:	f800283a 	ret
 2004454:	0109c83a 	sub	r4,zero,r4
 2004458:	04000044 	movi	r16,1
 200445c:	000d883a 	mov	r6,zero
 2004460:	283ff20e 	bge	r5,zero,200442c <__divsi3+0x1c>
 2004464:	014bc83a 	sub	r5,zero,r5
 2004468:	8021003a 	cmpeq	r16,r16,zero
 200446c:	003fef06 	br	200442c <__divsi3+0x1c>

02004470 <__modsi3>:
 2004470:	deffff04 	addi	sp,sp,-4
 2004474:	dfc00015 	stw	ra,0(sp)
 2004478:	01800044 	movi	r6,1
 200447c:	2807883a 	mov	r3,r5
 2004480:	20000416 	blt	r4,zero,2004494 <__modsi3+0x24>
 2004484:	28000c16 	blt	r5,zero,20044b8 <__modsi3+0x48>
 2004488:	dfc00017 	ldw	ra,0(sp)
 200448c:	dec00104 	addi	sp,sp,4
 2004490:	20043941 	jmpi	2004394 <udivmodsi4>
 2004494:	0109c83a 	sub	r4,zero,r4
 2004498:	28000b16 	blt	r5,zero,20044c8 <__modsi3+0x58>
 200449c:	180b883a 	mov	r5,r3
 20044a0:	01800044 	movi	r6,1
 20044a4:	20043940 	call	2004394 <udivmodsi4>
 20044a8:	0085c83a 	sub	r2,zero,r2
 20044ac:	dfc00017 	ldw	ra,0(sp)
 20044b0:	dec00104 	addi	sp,sp,4
 20044b4:	f800283a 	ret
 20044b8:	014bc83a 	sub	r5,zero,r5
 20044bc:	dfc00017 	ldw	ra,0(sp)
 20044c0:	dec00104 	addi	sp,sp,4
 20044c4:	20043941 	jmpi	2004394 <udivmodsi4>
 20044c8:	0147c83a 	sub	r3,zero,r5
 20044cc:	003ff306 	br	200449c <__modsi3+0x2c>

020044d0 <__udivsi3>:
 20044d0:	000d883a 	mov	r6,zero
 20044d4:	20043941 	jmpi	2004394 <udivmodsi4>

020044d8 <__umodsi3>:
 20044d8:	01800044 	movi	r6,1
 20044dc:	20043941 	jmpi	2004394 <udivmodsi4>

020044e0 <__muldi3>:
 20044e0:	2011883a 	mov	r8,r4
 20044e4:	427fffcc 	andi	r9,r8,65535
 20044e8:	4018d43a 	srli	r12,r8,16
 20044ec:	32bfffcc 	andi	r10,r6,65535
 20044f0:	3016d43a 	srli	r11,r6,16
 20044f4:	4a85383a 	mul	r2,r9,r10
 20044f8:	6295383a 	mul	r10,r12,r10
 20044fc:	4ad3383a 	mul	r9,r9,r11
 2004500:	113fffcc 	andi	r4,r2,65535
 2004504:	1004d43a 	srli	r2,r2,16
 2004508:	4a93883a 	add	r9,r9,r10
 200450c:	3807883a 	mov	r3,r7
 2004510:	1245883a 	add	r2,r2,r9
 2004514:	280f883a 	mov	r7,r5
 2004518:	180b883a 	mov	r5,r3
 200451c:	1006943a 	slli	r3,r2,16
 2004520:	defffd04 	addi	sp,sp,-12
 2004524:	dc800215 	stw	r18,8(sp)
 2004528:	1907883a 	add	r3,r3,r4
 200452c:	dc400115 	stw	r17,4(sp)
 2004530:	dc000015 	stw	r16,0(sp)
 2004534:	4165383a 	mul	r18,r8,r5
 2004538:	31e3383a 	mul	r17,r6,r7
 200453c:	1012d43a 	srli	r9,r2,16
 2004540:	62d9383a 	mul	r12,r12,r11
 2004544:	181f883a 	mov	r15,r3
 2004548:	1280022e 	bgeu	r2,r10,2004554 <__muldi3+0x74>
 200454c:	00800074 	movhi	r2,1
 2004550:	6099883a 	add	r12,r12,r2
 2004554:	624d883a 	add	r6,r12,r9
 2004558:	9187883a 	add	r3,r18,r6
 200455c:	88c7883a 	add	r3,r17,r3
 2004560:	7805883a 	mov	r2,r15
 2004564:	dc800217 	ldw	r18,8(sp)
 2004568:	dc400117 	ldw	r17,4(sp)
 200456c:	dc000017 	ldw	r16,0(sp)
 2004570:	dec00304 	addi	sp,sp,12
 2004574:	f800283a 	ret

02004578 <__clzsi2>:
 2004578:	00bfffd4 	movui	r2,65535
 200457c:	11000e36 	bltu	r2,r4,20045b8 <__clzsi2+0x40>
 2004580:	00803fc4 	movi	r2,255
 2004584:	01400204 	movi	r5,8
 2004588:	0007883a 	mov	r3,zero
 200458c:	11001036 	bltu	r2,r4,20045d0 <__clzsi2+0x58>
 2004590:	000b883a 	mov	r5,zero
 2004594:	20c6d83a 	srl	r3,r4,r3
 2004598:	00808074 	movhi	r2,513
 200459c:	108e1604 	addi	r2,r2,14424
 20045a0:	1887883a 	add	r3,r3,r2
 20045a4:	18800003 	ldbu	r2,0(r3)
 20045a8:	00c00804 	movi	r3,32
 20045ac:	2885883a 	add	r2,r5,r2
 20045b0:	1885c83a 	sub	r2,r3,r2
 20045b4:	f800283a 	ret
 20045b8:	01400404 	movi	r5,16
 20045bc:	00804034 	movhi	r2,256
 20045c0:	10bfffc4 	addi	r2,r2,-1
 20045c4:	2807883a 	mov	r3,r5
 20045c8:	113ff22e 	bgeu	r2,r4,2004594 <__clzsi2+0x1c>
 20045cc:	01400604 	movi	r5,24
 20045d0:	2807883a 	mov	r3,r5
 20045d4:	20c6d83a 	srl	r3,r4,r3
 20045d8:	00808074 	movhi	r2,513
 20045dc:	108e1604 	addi	r2,r2,14424
 20045e0:	1887883a 	add	r3,r3,r2
 20045e4:	18800003 	ldbu	r2,0(r3)
 20045e8:	00c00804 	movi	r3,32
 20045ec:	2885883a 	add	r2,r5,r2
 20045f0:	1885c83a 	sub	r2,r3,r2
 20045f4:	f800283a 	ret

020045f8 <__fixunsdfsi>:
 20045f8:	defffb04 	addi	sp,sp,-20
 20045fc:	dc400115 	stw	r17,4(sp)
 2004600:	dc000015 	stw	r16,0(sp)
 2004604:	04507834 	movhi	r17,16864
 2004608:	0021883a 	mov	r16,zero
 200460c:	800d883a 	mov	r6,r16
 2004610:	880f883a 	mov	r7,r17
 2004614:	dcc00315 	stw	r19,12(sp)
 2004618:	dc800215 	stw	r18,8(sp)
 200461c:	2827883a 	mov	r19,r5
 2004620:	2025883a 	mov	r18,r4
 2004624:	dfc00415 	stw	ra,16(sp)
 2004628:	2004eac0 	call	2004eac <__gedf2>
 200462c:	000d883a 	mov	r6,zero
 2004630:	880f883a 	mov	r7,r17
 2004634:	980b883a 	mov	r5,r19
 2004638:	9009883a 	mov	r4,r18
 200463c:	10000d16 	blt	r2,zero,2004674 <__fixunsdfsi+0x7c>
 2004640:	20038e40 	call	20038e4 <__subdf3>
 2004644:	180b883a 	mov	r5,r3
 2004648:	1009883a 	mov	r4,r2
 200464c:	200407c0 	call	200407c <__fixdfsi>
 2004650:	00e00034 	movhi	r3,32768
 2004654:	10c5883a 	add	r2,r2,r3
 2004658:	dfc00417 	ldw	ra,16(sp)
 200465c:	dcc00317 	ldw	r19,12(sp)
 2004660:	dc800217 	ldw	r18,8(sp)
 2004664:	dc400117 	ldw	r17,4(sp)
 2004668:	dc000017 	ldw	r16,0(sp)
 200466c:	dec00504 	addi	sp,sp,20
 2004670:	f800283a 	ret
 2004674:	980b883a 	mov	r5,r19
 2004678:	9009883a 	mov	r4,r18
 200467c:	200407c0 	call	200407c <__fixdfsi>
 2004680:	dfc00417 	ldw	ra,16(sp)
 2004684:	dcc00317 	ldw	r19,12(sp)
 2004688:	dc800217 	ldw	r18,8(sp)
 200468c:	dc400117 	ldw	r17,4(sp)
 2004690:	dc000017 	ldw	r16,0(sp)
 2004694:	dec00504 	addi	sp,sp,20
 2004698:	f800283a 	ret

0200469c <__pack_f>:
 200469c:	20c00017 	ldw	r3,0(r4)
 20046a0:	01c00044 	movi	r7,1
 20046a4:	21800317 	ldw	r6,12(r4)
 20046a8:	21400117 	ldw	r5,4(r4)
 20046ac:	38c02d2e 	bgeu	r7,r3,2004764 <__pack_f+0xc8>
 20046b0:	00800104 	movi	r2,4
 20046b4:	18802826 	beq	r3,r2,2004758 <__pack_f+0xbc>
 20046b8:	00800084 	movi	r2,2
 20046bc:	18800126 	beq	r3,r2,20046c4 <__pack_f+0x28>
 20046c0:	3000101e 	bne	r6,zero,2004704 <__pack_f+0x68>
 20046c4:	000d883a 	mov	r6,zero
 20046c8:	0007883a 	mov	r3,zero
 20046cc:	19003fcc 	andi	r4,r3,255
 20046d0:	200895fa 	slli	r4,r4,23
 20046d4:	00c02034 	movhi	r3,128
 20046d8:	18ffffc4 	addi	r3,r3,-1
 20046dc:	30c6703a 	and	r3,r6,r3
 20046e0:	10a0002c 	andhi	r2,r2,32768
 20046e4:	10c4b03a 	or	r2,r2,r3
 20046e8:	280a97fa 	slli	r5,r5,31
 20046ec:	1104b03a 	or	r2,r2,r4
 20046f0:	00e00034 	movhi	r3,32768
 20046f4:	18ffffc4 	addi	r3,r3,-1
 20046f8:	10c4703a 	and	r2,r2,r3
 20046fc:	1144b03a 	or	r2,r2,r5
 2004700:	f800283a 	ret
 2004704:	21000217 	ldw	r4,8(r4)
 2004708:	00bfe084 	movi	r2,-126
 200470c:	20801b16 	blt	r4,r2,200477c <__pack_f+0xe0>
 2004710:	00801fc4 	movi	r2,127
 2004714:	11001016 	blt	r2,r4,2004758 <__pack_f+0xbc>
 2004718:	308e703a 	and	r7,r6,r2
 200471c:	2087883a 	add	r3,r4,r2
 2004720:	00801004 	movi	r2,64
 2004724:	38800526 	beq	r7,r2,200473c <__pack_f+0xa0>
 2004728:	31800fc4 	addi	r6,r6,63
 200472c:	30000716 	blt	r6,zero,200474c <__pack_f+0xb0>
 2004730:	300490ba 	slli	r2,r6,2
 2004734:	100cd27a 	srli	r6,r2,9
 2004738:	003fe406 	br	20046cc <__pack_f+0x30>
 200473c:	3080200c 	andi	r2,r6,128
 2004740:	103ffa26 	beq	r2,zero,200472c <__pack_f+0x90>
 2004744:	31cd883a 	add	r6,r6,r7
 2004748:	003ff806 	br	200472c <__pack_f+0x90>
 200474c:	300cd07a 	srli	r6,r6,1
 2004750:	18c00044 	addi	r3,r3,1
 2004754:	003ff606 	br	2004730 <__pack_f+0x94>
 2004758:	000d883a 	mov	r6,zero
 200475c:	00ffffc4 	movi	r3,-1
 2004760:	003fda06 	br	20046cc <__pack_f+0x30>
 2004764:	31800434 	orhi	r6,r6,16
 2004768:	00802034 	movhi	r2,128
 200476c:	10bfffc4 	addi	r2,r2,-1
 2004770:	308c703a 	and	r6,r6,r2
 2004774:	00ffffc4 	movi	r3,-1
 2004778:	003fd406 	br	20046cc <__pack_f+0x30>
 200477c:	1109c83a 	sub	r4,r2,r4
 2004780:	00800644 	movi	r2,25
 2004784:	11001216 	blt	r2,r4,20047d0 <__pack_f+0x134>
 2004788:	3904983a 	sll	r2,r7,r4
 200478c:	3106d83a 	srl	r3,r6,r4
 2004790:	10bfffc4 	addi	r2,r2,-1
 2004794:	3084703a 	and	r2,r6,r2
 2004798:	1004c03a 	cmpne	r2,r2,zero
 200479c:	1886b03a 	or	r3,r3,r2
 20047a0:	19001fcc 	andi	r4,r3,127
 20047a4:	00801004 	movi	r2,64
 20047a8:	20800c26 	beq	r4,r2,20047dc <__pack_f+0x140>
 20047ac:	18c00fc4 	addi	r3,r3,63
 20047b0:	00900034 	movhi	r2,16384
 20047b4:	10bfffc4 	addi	r2,r2,-1
 20047b8:	180cd1fa 	srli	r6,r3,7
 20047bc:	10c7803a 	cmpltu	r3,r2,r3
 20047c0:	00802034 	movhi	r2,128
 20047c4:	10bfffc4 	addi	r2,r2,-1
 20047c8:	308c703a 	and	r6,r6,r2
 20047cc:	003fbf06 	br	20046cc <__pack_f+0x30>
 20047d0:	0007883a 	mov	r3,zero
 20047d4:	000d883a 	mov	r6,zero
 20047d8:	003ff906 	br	20047c0 <__pack_f+0x124>
 20047dc:	1880200c 	andi	r2,r3,128
 20047e0:	10000126 	beq	r2,zero,20047e8 <__pack_f+0x14c>
 20047e4:	1907883a 	add	r3,r3,r4
 20047e8:	180cd1fa 	srli	r6,r3,7
 20047ec:	00900034 	movhi	r2,16384
 20047f0:	10bfffc4 	addi	r2,r2,-1
 20047f4:	10c7803a 	cmpltu	r3,r2,r3
 20047f8:	003ff106 	br	20047c0 <__pack_f+0x124>

020047fc <__unpack_f>:
 20047fc:	21800017 	ldw	r6,0(r4)
 2004800:	00c02034 	movhi	r3,128
 2004804:	18ffffc4 	addi	r3,r3,-1
 2004808:	3004d5fa 	srli	r2,r6,23
 200480c:	3008d7fa 	srli	r4,r6,31
 2004810:	30ce703a 	and	r7,r6,r3
 2004814:	10c03fcc 	andi	r3,r2,255
 2004818:	29000115 	stw	r4,4(r5)
 200481c:	1800131e 	bne	r3,zero,200486c <__unpack_f+0x70>
 2004820:	38000f26 	beq	r7,zero,2004860 <__unpack_f+0x64>
 2004824:	380691fa 	slli	r3,r7,7
 2004828:	01bfe084 	movi	r6,-126
 200482c:	008000c4 	movi	r2,3
 2004830:	01100034 	movhi	r4,16384
 2004834:	213fffc4 	addi	r4,r4,-1
 2004838:	28800015 	stw	r2,0(r5)
 200483c:	29800215 	stw	r6,8(r5)
 2004840:	20c00536 	bltu	r4,r3,2004858 <__unpack_f+0x5c>
 2004844:	3005883a 	mov	r2,r6
 2004848:	18c7883a 	add	r3,r3,r3
 200484c:	10bfffc4 	addi	r2,r2,-1
 2004850:	20fffd2e 	bgeu	r4,r3,2004848 <__unpack_f+0x4c>
 2004854:	28800215 	stw	r2,8(r5)
 2004858:	28c00315 	stw	r3,12(r5)
 200485c:	f800283a 	ret
 2004860:	00800084 	movi	r2,2
 2004864:	28800015 	stw	r2,0(r5)
 2004868:	f800283a 	ret
 200486c:	00803fc4 	movi	r2,255
 2004870:	18800826 	beq	r3,r2,2004894 <__unpack_f+0x98>
 2004874:	380491fa 	slli	r2,r7,7
 2004878:	18ffe044 	addi	r3,r3,-127
 200487c:	28c00215 	stw	r3,8(r5)
 2004880:	10900034 	orhi	r2,r2,16384
 2004884:	28800315 	stw	r2,12(r5)
 2004888:	008000c4 	movi	r2,3
 200488c:	28800015 	stw	r2,0(r5)
 2004890:	f800283a 	ret
 2004894:	3800031e 	bne	r7,zero,20048a4 <__unpack_f+0xa8>
 2004898:	00800104 	movi	r2,4
 200489c:	28800015 	stw	r2,0(r5)
 20048a0:	f800283a 	ret
 20048a4:	3080042c 	andhi	r2,r6,16
 20048a8:	10000426 	beq	r2,zero,20048bc <__unpack_f+0xc0>
 20048ac:	00800044 	movi	r2,1
 20048b0:	28800015 	stw	r2,0(r5)
 20048b4:	29c00315 	stw	r7,12(r5)
 20048b8:	f800283a 	ret
 20048bc:	28000015 	stw	zero,0(r5)
 20048c0:	003ffc06 	br	20048b4 <__unpack_f+0xb8>

020048c4 <__fpcmp_parts_f>:
 20048c4:	21800017 	ldw	r6,0(r4)
 20048c8:	00c00044 	movi	r3,1
 20048cc:	19800a2e 	bgeu	r3,r6,20048f8 <__fpcmp_parts_f+0x34>
 20048d0:	28800017 	ldw	r2,0(r5)
 20048d4:	1880082e 	bgeu	r3,r2,20048f8 <__fpcmp_parts_f+0x34>
 20048d8:	00c00104 	movi	r3,4
 20048dc:	30c01e26 	beq	r6,r3,2004958 <__fpcmp_parts_f+0x94>
 20048e0:	10c01a26 	beq	r2,r3,200494c <__fpcmp_parts_f+0x88>
 20048e4:	00c00084 	movi	r3,2
 20048e8:	30c00526 	beq	r6,r3,2004900 <__fpcmp_parts_f+0x3c>
 20048ec:	10c0071e 	bne	r2,r3,200490c <__fpcmp_parts_f+0x48>
 20048f0:	20800117 	ldw	r2,4(r4)
 20048f4:	1000091e 	bne	r2,zero,200491c <__fpcmp_parts_f+0x58>
 20048f8:	00800044 	movi	r2,1
 20048fc:	f800283a 	ret
 2004900:	10c0121e 	bne	r2,r3,200494c <__fpcmp_parts_f+0x88>
 2004904:	0005883a 	mov	r2,zero
 2004908:	f800283a 	ret
 200490c:	20c00117 	ldw	r3,4(r4)
 2004910:	28800117 	ldw	r2,4(r5)
 2004914:	18800326 	beq	r3,r2,2004924 <__fpcmp_parts_f+0x60>
 2004918:	183ff726 	beq	r3,zero,20048f8 <__fpcmp_parts_f+0x34>
 200491c:	00bfffc4 	movi	r2,-1
 2004920:	f800283a 	ret
 2004924:	21800217 	ldw	r6,8(r4)
 2004928:	28800217 	ldw	r2,8(r5)
 200492c:	11bffa16 	blt	r2,r6,2004918 <__fpcmp_parts_f+0x54>
 2004930:	30800416 	blt	r6,r2,2004944 <__fpcmp_parts_f+0x80>
 2004934:	21000317 	ldw	r4,12(r4)
 2004938:	29400317 	ldw	r5,12(r5)
 200493c:	293ff636 	bltu	r5,r4,2004918 <__fpcmp_parts_f+0x54>
 2004940:	217ff02e 	bgeu	r4,r5,2004904 <__fpcmp_parts_f+0x40>
 2004944:	183fec1e 	bne	r3,zero,20048f8 <__fpcmp_parts_f+0x34>
 2004948:	003ff406 	br	200491c <__fpcmp_parts_f+0x58>
 200494c:	28800117 	ldw	r2,4(r5)
 2004950:	103fe91e 	bne	r2,zero,20048f8 <__fpcmp_parts_f+0x34>
 2004954:	003ff106 	br	200491c <__fpcmp_parts_f+0x58>
 2004958:	11bfe51e 	bne	r2,r6,20048f0 <__fpcmp_parts_f+0x2c>
 200495c:	28c00117 	ldw	r3,4(r5)
 2004960:	20800117 	ldw	r2,4(r4)
 2004964:	1885c83a 	sub	r2,r3,r2
 2004968:	f800283a 	ret

0200496c <__make_fp>:
 200496c:	defffb04 	addi	sp,sp,-20
 2004970:	d9000015 	stw	r4,0(sp)
 2004974:	d809883a 	mov	r4,sp
 2004978:	dfc00415 	stw	ra,16(sp)
 200497c:	d9400115 	stw	r5,4(sp)
 2004980:	d9800215 	stw	r6,8(sp)
 2004984:	d9c00315 	stw	r7,12(sp)
 2004988:	200469c0 	call	200469c <__pack_f>
 200498c:	dfc00417 	ldw	ra,16(sp)
 2004990:	dec00504 	addi	sp,sp,20
 2004994:	f800283a 	ret

02004998 <__pack_d>:
 2004998:	20c00017 	ldw	r3,0(r4)
 200499c:	defffd04 	addi	sp,sp,-12
 20049a0:	dc000015 	stw	r16,0(sp)
 20049a4:	dc800215 	stw	r18,8(sp)
 20049a8:	dc400115 	stw	r17,4(sp)
 20049ac:	00800044 	movi	r2,1
 20049b0:	22000317 	ldw	r8,12(r4)
 20049b4:	001f883a 	mov	r15,zero
 20049b8:	22400417 	ldw	r9,16(r4)
 20049bc:	24000117 	ldw	r16,4(r4)
 20049c0:	10c0552e 	bgeu	r2,r3,2004b18 <__pack_d+0x180>
 20049c4:	00800104 	movi	r2,4
 20049c8:	18804f26 	beq	r3,r2,2004b08 <__pack_d+0x170>
 20049cc:	00800084 	movi	r2,2
 20049d0:	18800226 	beq	r3,r2,20049dc <__pack_d+0x44>
 20049d4:	4244b03a 	or	r2,r8,r9
 20049d8:	10001a1e 	bne	r2,zero,2004a44 <__pack_d+0xac>
 20049dc:	000d883a 	mov	r6,zero
 20049e0:	000f883a 	mov	r7,zero
 20049e4:	0011883a 	mov	r8,zero
 20049e8:	00800434 	movhi	r2,16
 20049ec:	10bfffc4 	addi	r2,r2,-1
 20049f0:	301d883a 	mov	r14,r6
 20049f4:	3884703a 	and	r2,r7,r2
 20049f8:	400a953a 	slli	r5,r8,20
 20049fc:	79bffc2c 	andhi	r6,r15,65520
 2004a00:	308cb03a 	or	r6,r6,r2
 2004a04:	00e00434 	movhi	r3,32784
 2004a08:	18ffffc4 	addi	r3,r3,-1
 2004a0c:	800497fa 	slli	r2,r16,31
 2004a10:	30c6703a 	and	r3,r6,r3
 2004a14:	1946b03a 	or	r3,r3,r5
 2004a18:	01600034 	movhi	r5,32768
 2004a1c:	297fffc4 	addi	r5,r5,-1
 2004a20:	194a703a 	and	r5,r3,r5
 2004a24:	288ab03a 	or	r5,r5,r2
 2004a28:	2807883a 	mov	r3,r5
 2004a2c:	7005883a 	mov	r2,r14
 2004a30:	dc800217 	ldw	r18,8(sp)
 2004a34:	dc400117 	ldw	r17,4(sp)
 2004a38:	dc000017 	ldw	r16,0(sp)
 2004a3c:	dec00304 	addi	sp,sp,12
 2004a40:	f800283a 	ret
 2004a44:	21000217 	ldw	r4,8(r4)
 2004a48:	00bf0084 	movi	r2,-1022
 2004a4c:	20803f16 	blt	r4,r2,2004b4c <__pack_d+0x1b4>
 2004a50:	0080ffc4 	movi	r2,1023
 2004a54:	11002c16 	blt	r2,r4,2004b08 <__pack_d+0x170>
 2004a58:	00803fc4 	movi	r2,255
 2004a5c:	408c703a 	and	r6,r8,r2
 2004a60:	00802004 	movi	r2,128
 2004a64:	0007883a 	mov	r3,zero
 2004a68:	000f883a 	mov	r7,zero
 2004a6c:	2280ffc4 	addi	r10,r4,1023
 2004a70:	30801e26 	beq	r6,r2,2004aec <__pack_d+0x154>
 2004a74:	00801fc4 	movi	r2,127
 2004a78:	4089883a 	add	r4,r8,r2
 2004a7c:	220d803a 	cmpltu	r6,r4,r8
 2004a80:	324d883a 	add	r6,r6,r9
 2004a84:	2011883a 	mov	r8,r4
 2004a88:	3013883a 	mov	r9,r6
 2004a8c:	00880034 	movhi	r2,8192
 2004a90:	10bfffc4 	addi	r2,r2,-1
 2004a94:	12400d36 	bltu	r2,r9,2004acc <__pack_d+0x134>
 2004a98:	4804963a 	slli	r2,r9,24
 2004a9c:	400cd23a 	srli	r6,r8,8
 2004aa0:	480ed23a 	srli	r7,r9,8
 2004aa4:	013fffc4 	movi	r4,-1
 2004aa8:	118cb03a 	or	r6,r2,r6
 2004aac:	01400434 	movhi	r5,16
 2004ab0:	297fffc4 	addi	r5,r5,-1
 2004ab4:	3104703a 	and	r2,r6,r4
 2004ab8:	3946703a 	and	r3,r7,r5
 2004abc:	5201ffcc 	andi	r8,r10,2047
 2004ac0:	100d883a 	mov	r6,r2
 2004ac4:	180f883a 	mov	r7,r3
 2004ac8:	003fc706 	br	20049e8 <__pack_d+0x50>
 2004acc:	480897fa 	slli	r4,r9,31
 2004ad0:	4004d07a 	srli	r2,r8,1
 2004ad4:	4806d07a 	srli	r3,r9,1
 2004ad8:	52800044 	addi	r10,r10,1
 2004adc:	2084b03a 	or	r2,r4,r2
 2004ae0:	1011883a 	mov	r8,r2
 2004ae4:	1813883a 	mov	r9,r3
 2004ae8:	003feb06 	br	2004a98 <__pack_d+0x100>
 2004aec:	383fe11e 	bne	r7,zero,2004a74 <__pack_d+0xdc>
 2004af0:	01004004 	movi	r4,256
 2004af4:	4104703a 	and	r2,r8,r4
 2004af8:	10c4b03a 	or	r2,r2,r3
 2004afc:	103fe326 	beq	r2,zero,2004a8c <__pack_d+0xf4>
 2004b00:	3005883a 	mov	r2,r6
 2004b04:	003fdc06 	br	2004a78 <__pack_d+0xe0>
 2004b08:	000d883a 	mov	r6,zero
 2004b0c:	000f883a 	mov	r7,zero
 2004b10:	0201ffc4 	movi	r8,2047
 2004b14:	003fb406 	br	20049e8 <__pack_d+0x50>
 2004b18:	0005883a 	mov	r2,zero
 2004b1c:	00c00234 	movhi	r3,8
 2004b20:	408cb03a 	or	r6,r8,r2
 2004b24:	48ceb03a 	or	r7,r9,r3
 2004b28:	013fffc4 	movi	r4,-1
 2004b2c:	01400434 	movhi	r5,16
 2004b30:	297fffc4 	addi	r5,r5,-1
 2004b34:	3104703a 	and	r2,r6,r4
 2004b38:	3946703a 	and	r3,r7,r5
 2004b3c:	100d883a 	mov	r6,r2
 2004b40:	180f883a 	mov	r7,r3
 2004b44:	0201ffc4 	movi	r8,2047
 2004b48:	003fa706 	br	20049e8 <__pack_d+0x50>
 2004b4c:	1109c83a 	sub	r4,r2,r4
 2004b50:	00800e04 	movi	r2,56
 2004b54:	11004316 	blt	r2,r4,2004c64 <__pack_d+0x2cc>
 2004b58:	21fff804 	addi	r7,r4,-32
 2004b5c:	38004516 	blt	r7,zero,2004c74 <__pack_d+0x2dc>
 2004b60:	49d8d83a 	srl	r12,r9,r7
 2004b64:	001b883a 	mov	r13,zero
 2004b68:	0023883a 	mov	r17,zero
 2004b6c:	01400044 	movi	r5,1
 2004b70:	0025883a 	mov	r18,zero
 2004b74:	38004716 	blt	r7,zero,2004c94 <__pack_d+0x2fc>
 2004b78:	29d6983a 	sll	r11,r5,r7
 2004b7c:	0015883a 	mov	r10,zero
 2004b80:	00bfffc4 	movi	r2,-1
 2004b84:	5089883a 	add	r4,r10,r2
 2004b88:	588b883a 	add	r5,r11,r2
 2004b8c:	228d803a 	cmpltu	r6,r4,r10
 2004b90:	314b883a 	add	r5,r6,r5
 2004b94:	4104703a 	and	r2,r8,r4
 2004b98:	4946703a 	and	r3,r9,r5
 2004b9c:	10c4b03a 	or	r2,r2,r3
 2004ba0:	10000226 	beq	r2,zero,2004bac <__pack_d+0x214>
 2004ba4:	04400044 	movi	r17,1
 2004ba8:	0025883a 	mov	r18,zero
 2004bac:	00803fc4 	movi	r2,255
 2004bb0:	644eb03a 	or	r7,r12,r17
 2004bb4:	3892703a 	and	r9,r7,r2
 2004bb8:	00802004 	movi	r2,128
 2004bbc:	6c90b03a 	or	r8,r13,r18
 2004bc0:	0015883a 	mov	r10,zero
 2004bc4:	48801626 	beq	r9,r2,2004c20 <__pack_d+0x288>
 2004bc8:	01001fc4 	movi	r4,127
 2004bcc:	3905883a 	add	r2,r7,r4
 2004bd0:	11cd803a 	cmpltu	r6,r2,r7
 2004bd4:	320d883a 	add	r6,r6,r8
 2004bd8:	100f883a 	mov	r7,r2
 2004bdc:	00840034 	movhi	r2,4096
 2004be0:	10bfffc4 	addi	r2,r2,-1
 2004be4:	3011883a 	mov	r8,r6
 2004be8:	0007883a 	mov	r3,zero
 2004bec:	11801b36 	bltu	r2,r6,2004c5c <__pack_d+0x2c4>
 2004bf0:	4004963a 	slli	r2,r8,24
 2004bf4:	3808d23a 	srli	r4,r7,8
 2004bf8:	400ad23a 	srli	r5,r8,8
 2004bfc:	1813883a 	mov	r9,r3
 2004c00:	1108b03a 	or	r4,r2,r4
 2004c04:	00bfffc4 	movi	r2,-1
 2004c08:	00c00434 	movhi	r3,16
 2004c0c:	18ffffc4 	addi	r3,r3,-1
 2004c10:	208c703a 	and	r6,r4,r2
 2004c14:	28ce703a 	and	r7,r5,r3
 2004c18:	4a01ffcc 	andi	r8,r9,2047
 2004c1c:	003f7206 	br	20049e8 <__pack_d+0x50>
 2004c20:	503fe91e 	bne	r10,zero,2004bc8 <__pack_d+0x230>
 2004c24:	01004004 	movi	r4,256
 2004c28:	3904703a 	and	r2,r7,r4
 2004c2c:	0007883a 	mov	r3,zero
 2004c30:	10c4b03a 	or	r2,r2,r3
 2004c34:	10000626 	beq	r2,zero,2004c50 <__pack_d+0x2b8>
 2004c38:	3a45883a 	add	r2,r7,r9
 2004c3c:	11cd803a 	cmpltu	r6,r2,r7
 2004c40:	320d883a 	add	r6,r6,r8
 2004c44:	100f883a 	mov	r7,r2
 2004c48:	3011883a 	mov	r8,r6
 2004c4c:	0007883a 	mov	r3,zero
 2004c50:	00840034 	movhi	r2,4096
 2004c54:	10bfffc4 	addi	r2,r2,-1
 2004c58:	123fe52e 	bgeu	r2,r8,2004bf0 <__pack_d+0x258>
 2004c5c:	00c00044 	movi	r3,1
 2004c60:	003fe306 	br	2004bf0 <__pack_d+0x258>
 2004c64:	0009883a 	mov	r4,zero
 2004c68:	0013883a 	mov	r9,zero
 2004c6c:	000b883a 	mov	r5,zero
 2004c70:	003fe406 	br	2004c04 <__pack_d+0x26c>
 2004c74:	4a47883a 	add	r3,r9,r9
 2004c78:	008007c4 	movi	r2,31
 2004c7c:	1105c83a 	sub	r2,r2,r4
 2004c80:	1886983a 	sll	r3,r3,r2
 2004c84:	4118d83a 	srl	r12,r8,r4
 2004c88:	491ad83a 	srl	r13,r9,r4
 2004c8c:	1b18b03a 	or	r12,r3,r12
 2004c90:	003fb506 	br	2004b68 <__pack_d+0x1d0>
 2004c94:	2806d07a 	srli	r3,r5,1
 2004c98:	008007c4 	movi	r2,31
 2004c9c:	1105c83a 	sub	r2,r2,r4
 2004ca0:	1896d83a 	srl	r11,r3,r2
 2004ca4:	2914983a 	sll	r10,r5,r4
 2004ca8:	003fb506 	br	2004b80 <__pack_d+0x1e8>

02004cac <__unpack_d>:
 2004cac:	20c00117 	ldw	r3,4(r4)
 2004cb0:	22400017 	ldw	r9,0(r4)
 2004cb4:	00800434 	movhi	r2,16
 2004cb8:	10bfffc4 	addi	r2,r2,-1
 2004cbc:	1808d53a 	srli	r4,r3,20
 2004cc0:	180cd7fa 	srli	r6,r3,31
 2004cc4:	1894703a 	and	r10,r3,r2
 2004cc8:	2201ffcc 	andi	r8,r4,2047
 2004ccc:	281b883a 	mov	r13,r5
 2004cd0:	4817883a 	mov	r11,r9
 2004cd4:	29800115 	stw	r6,4(r5)
 2004cd8:	5019883a 	mov	r12,r10
 2004cdc:	40001e1e 	bne	r8,zero,2004d58 <__unpack_d+0xac>
 2004ce0:	4a84b03a 	or	r2,r9,r10
 2004ce4:	10001926 	beq	r2,zero,2004d4c <__unpack_d+0xa0>
 2004ce8:	4804d63a 	srli	r2,r9,24
 2004cec:	500c923a 	slli	r6,r10,8
 2004cf0:	013f0084 	movi	r4,-1022
 2004cf4:	00c40034 	movhi	r3,4096
 2004cf8:	18ffffc4 	addi	r3,r3,-1
 2004cfc:	118cb03a 	or	r6,r2,r6
 2004d00:	008000c4 	movi	r2,3
 2004d04:	480a923a 	slli	r5,r9,8
 2004d08:	68800015 	stw	r2,0(r13)
 2004d0c:	69000215 	stw	r4,8(r13)
 2004d10:	19800b36 	bltu	r3,r6,2004d40 <__unpack_d+0x94>
 2004d14:	200f883a 	mov	r7,r4
 2004d18:	1811883a 	mov	r8,r3
 2004d1c:	2945883a 	add	r2,r5,r5
 2004d20:	1149803a 	cmpltu	r4,r2,r5
 2004d24:	3187883a 	add	r3,r6,r6
 2004d28:	20c9883a 	add	r4,r4,r3
 2004d2c:	100b883a 	mov	r5,r2
 2004d30:	200d883a 	mov	r6,r4
 2004d34:	39ffffc4 	addi	r7,r7,-1
 2004d38:	413ff82e 	bgeu	r8,r4,2004d1c <__unpack_d+0x70>
 2004d3c:	69c00215 	stw	r7,8(r13)
 2004d40:	69800415 	stw	r6,16(r13)
 2004d44:	69400315 	stw	r5,12(r13)
 2004d48:	f800283a 	ret
 2004d4c:	00800084 	movi	r2,2
 2004d50:	28800015 	stw	r2,0(r5)
 2004d54:	f800283a 	ret
 2004d58:	0081ffc4 	movi	r2,2047
 2004d5c:	40800f26 	beq	r8,r2,2004d9c <__unpack_d+0xf0>
 2004d60:	480cd63a 	srli	r6,r9,24
 2004d64:	5006923a 	slli	r3,r10,8
 2004d68:	4804923a 	slli	r2,r9,8
 2004d6c:	0009883a 	mov	r4,zero
 2004d70:	30c6b03a 	or	r3,r6,r3
 2004d74:	01440034 	movhi	r5,4096
 2004d78:	110cb03a 	or	r6,r2,r4
 2004d7c:	423f0044 	addi	r8,r8,-1023
 2004d80:	194eb03a 	or	r7,r3,r5
 2004d84:	008000c4 	movi	r2,3
 2004d88:	69c00415 	stw	r7,16(r13)
 2004d8c:	6a000215 	stw	r8,8(r13)
 2004d90:	68800015 	stw	r2,0(r13)
 2004d94:	69800315 	stw	r6,12(r13)
 2004d98:	f800283a 	ret
 2004d9c:	4a84b03a 	or	r2,r9,r10
 2004da0:	1000031e 	bne	r2,zero,2004db0 <__unpack_d+0x104>
 2004da4:	00800104 	movi	r2,4
 2004da8:	28800015 	stw	r2,0(r5)
 2004dac:	f800283a 	ret
 2004db0:	0009883a 	mov	r4,zero
 2004db4:	01400234 	movhi	r5,8
 2004db8:	4904703a 	and	r2,r9,r4
 2004dbc:	5146703a 	and	r3,r10,r5
 2004dc0:	10c4b03a 	or	r2,r2,r3
 2004dc4:	10000526 	beq	r2,zero,2004ddc <__unpack_d+0x130>
 2004dc8:	00800044 	movi	r2,1
 2004dcc:	68800015 	stw	r2,0(r13)
 2004dd0:	6b000415 	stw	r12,16(r13)
 2004dd4:	6ac00315 	stw	r11,12(r13)
 2004dd8:	f800283a 	ret
 2004ddc:	68000015 	stw	zero,0(r13)
 2004de0:	003ffb06 	br	2004dd0 <__unpack_d+0x124>

02004de4 <__fpcmp_parts_d>:
 2004de4:	21800017 	ldw	r6,0(r4)
 2004de8:	00c00044 	movi	r3,1
 2004dec:	19800a2e 	bgeu	r3,r6,2004e18 <__fpcmp_parts_d+0x34>
 2004df0:	28800017 	ldw	r2,0(r5)
 2004df4:	1880082e 	bgeu	r3,r2,2004e18 <__fpcmp_parts_d+0x34>
 2004df8:	00c00104 	movi	r3,4
 2004dfc:	30c02626 	beq	r6,r3,2004e98 <__fpcmp_parts_d+0xb4>
 2004e00:	10c02226 	beq	r2,r3,2004e8c <__fpcmp_parts_d+0xa8>
 2004e04:	00c00084 	movi	r3,2
 2004e08:	30c00526 	beq	r6,r3,2004e20 <__fpcmp_parts_d+0x3c>
 2004e0c:	10c0071e 	bne	r2,r3,2004e2c <__fpcmp_parts_d+0x48>
 2004e10:	20800117 	ldw	r2,4(r4)
 2004e14:	1000091e 	bne	r2,zero,2004e3c <__fpcmp_parts_d+0x58>
 2004e18:	00800044 	movi	r2,1
 2004e1c:	f800283a 	ret
 2004e20:	10c01a1e 	bne	r2,r3,2004e8c <__fpcmp_parts_d+0xa8>
 2004e24:	0005883a 	mov	r2,zero
 2004e28:	f800283a 	ret
 2004e2c:	22000117 	ldw	r8,4(r4)
 2004e30:	28800117 	ldw	r2,4(r5)
 2004e34:	40800326 	beq	r8,r2,2004e44 <__fpcmp_parts_d+0x60>
 2004e38:	403ff726 	beq	r8,zero,2004e18 <__fpcmp_parts_d+0x34>
 2004e3c:	00bfffc4 	movi	r2,-1
 2004e40:	f800283a 	ret
 2004e44:	20c00217 	ldw	r3,8(r4)
 2004e48:	28800217 	ldw	r2,8(r5)
 2004e4c:	10fffa16 	blt	r2,r3,2004e38 <__fpcmp_parts_d+0x54>
 2004e50:	18800916 	blt	r3,r2,2004e78 <__fpcmp_parts_d+0x94>
 2004e54:	21c00417 	ldw	r7,16(r4)
 2004e58:	28c00417 	ldw	r3,16(r5)
 2004e5c:	21800317 	ldw	r6,12(r4)
 2004e60:	28800317 	ldw	r2,12(r5)
 2004e64:	19fff436 	bltu	r3,r7,2004e38 <__fpcmp_parts_d+0x54>
 2004e68:	38c00526 	beq	r7,r3,2004e80 <__fpcmp_parts_d+0x9c>
 2004e6c:	38c00236 	bltu	r7,r3,2004e78 <__fpcmp_parts_d+0x94>
 2004e70:	19ffec1e 	bne	r3,r7,2004e24 <__fpcmp_parts_d+0x40>
 2004e74:	30bfeb2e 	bgeu	r6,r2,2004e24 <__fpcmp_parts_d+0x40>
 2004e78:	403fe71e 	bne	r8,zero,2004e18 <__fpcmp_parts_d+0x34>
 2004e7c:	003fef06 	br	2004e3c <__fpcmp_parts_d+0x58>
 2004e80:	11bffa2e 	bgeu	r2,r6,2004e6c <__fpcmp_parts_d+0x88>
 2004e84:	403fe426 	beq	r8,zero,2004e18 <__fpcmp_parts_d+0x34>
 2004e88:	003fec06 	br	2004e3c <__fpcmp_parts_d+0x58>
 2004e8c:	28800117 	ldw	r2,4(r5)
 2004e90:	103fe11e 	bne	r2,zero,2004e18 <__fpcmp_parts_d+0x34>
 2004e94:	003fe906 	br	2004e3c <__fpcmp_parts_d+0x58>
 2004e98:	11bfdd1e 	bne	r2,r6,2004e10 <__fpcmp_parts_d+0x2c>
 2004e9c:	28c00117 	ldw	r3,4(r5)
 2004ea0:	20800117 	ldw	r2,4(r4)
 2004ea4:	1885c83a 	sub	r2,r3,r2
 2004ea8:	f800283a 	ret

02004eac <__gedf2>:
 2004eac:	deffef04 	addi	sp,sp,-68
 2004eb0:	dc400f15 	stw	r17,60(sp)
 2004eb4:	dc400404 	addi	r17,sp,16
 2004eb8:	2005883a 	mov	r2,r4
 2004ebc:	2807883a 	mov	r3,r5
 2004ec0:	dc000e15 	stw	r16,56(sp)
 2004ec4:	d809883a 	mov	r4,sp
 2004ec8:	880b883a 	mov	r5,r17
 2004ecc:	dc000904 	addi	r16,sp,36
 2004ed0:	d8c00115 	stw	r3,4(sp)
 2004ed4:	d8800015 	stw	r2,0(sp)
 2004ed8:	d9800215 	stw	r6,8(sp)
 2004edc:	dfc01015 	stw	ra,64(sp)
 2004ee0:	d9c00315 	stw	r7,12(sp)
 2004ee4:	2004cac0 	call	2004cac <__unpack_d>
 2004ee8:	d9000204 	addi	r4,sp,8
 2004eec:	800b883a 	mov	r5,r16
 2004ef0:	2004cac0 	call	2004cac <__unpack_d>
 2004ef4:	d8800417 	ldw	r2,16(sp)
 2004ef8:	00c00044 	movi	r3,1
 2004efc:	01bfffc4 	movi	r6,-1
 2004f00:	1880062e 	bgeu	r3,r2,2004f1c <__gedf2+0x70>
 2004f04:	d8800917 	ldw	r2,36(sp)
 2004f08:	8809883a 	mov	r4,r17
 2004f0c:	800b883a 	mov	r5,r16
 2004f10:	1880022e 	bgeu	r3,r2,2004f1c <__gedf2+0x70>
 2004f14:	2004de40 	call	2004de4 <__fpcmp_parts_d>
 2004f18:	100d883a 	mov	r6,r2
 2004f1c:	3005883a 	mov	r2,r6
 2004f20:	dfc01017 	ldw	ra,64(sp)
 2004f24:	dc400f17 	ldw	r17,60(sp)
 2004f28:	dc000e17 	ldw	r16,56(sp)
 2004f2c:	dec01104 	addi	sp,sp,68
 2004f30:	f800283a 	ret

02004f34 <__errno>:
 2004f34:	00c08074 	movhi	r3,513
 2004f38:	18d64904 	addi	r3,r3,22820
 2004f3c:	18800017 	ldw	r2,0(r3)
 2004f40:	f800283a 	ret

02004f44 <printf>:
 2004f44:	defffb04 	addi	sp,sp,-20
 2004f48:	dfc00115 	stw	ra,4(sp)
 2004f4c:	d9400215 	stw	r5,8(sp)
 2004f50:	d9800315 	stw	r6,12(sp)
 2004f54:	d9c00415 	stw	r7,16(sp)
 2004f58:	00808074 	movhi	r2,513
 2004f5c:	10964904 	addi	r2,r2,22820
 2004f60:	10c00017 	ldw	r3,0(r2)
 2004f64:	200b883a 	mov	r5,r4
 2004f68:	d8800204 	addi	r2,sp,8
 2004f6c:	19000217 	ldw	r4,8(r3)
 2004f70:	100d883a 	mov	r6,r2
 2004f74:	d8800015 	stw	r2,0(sp)
 2004f78:	2006fe80 	call	2006fe8 <__vfprintf_internal>
 2004f7c:	dfc00117 	ldw	ra,4(sp)
 2004f80:	dec00504 	addi	sp,sp,20
 2004f84:	f800283a 	ret

02004f88 <_printf_r>:
 2004f88:	defffc04 	addi	sp,sp,-16
 2004f8c:	dfc00115 	stw	ra,4(sp)
 2004f90:	d9800215 	stw	r6,8(sp)
 2004f94:	d9c00315 	stw	r7,12(sp)
 2004f98:	280d883a 	mov	r6,r5
 2004f9c:	21400217 	ldw	r5,8(r4)
 2004fa0:	d8c00204 	addi	r3,sp,8
 2004fa4:	180f883a 	mov	r7,r3
 2004fa8:	d8c00015 	stw	r3,0(sp)
 2004fac:	200513c0 	call	200513c <___vfprintf_internal_r>
 2004fb0:	dfc00117 	ldw	ra,4(sp)
 2004fb4:	dec00404 	addi	sp,sp,16
 2004fb8:	f800283a 	ret

02004fbc <_puts_r>:
 2004fbc:	defff604 	addi	sp,sp,-40
 2004fc0:	dc400715 	stw	r17,28(sp)
 2004fc4:	2023883a 	mov	r17,r4
 2004fc8:	2809883a 	mov	r4,r5
 2004fcc:	dfc00915 	stw	ra,36(sp)
 2004fd0:	dcc00815 	stw	r19,32(sp)
 2004fd4:	2827883a 	mov	r19,r5
 2004fd8:	20050700 	call	2005070 <strlen>
 2004fdc:	89400217 	ldw	r5,8(r17)
 2004fe0:	00c08074 	movhi	r3,513
 2004fe4:	18ce5704 	addi	r3,r3,14684
 2004fe8:	01c00044 	movi	r7,1
 2004fec:	12000044 	addi	r8,r2,1
 2004ff0:	d8c00515 	stw	r3,20(sp)
 2004ff4:	d9c00615 	stw	r7,24(sp)
 2004ff8:	d8c00304 	addi	r3,sp,12
 2004ffc:	01c00084 	movi	r7,2
 2005000:	8809883a 	mov	r4,r17
 2005004:	d80d883a 	mov	r6,sp
 2005008:	d8c00015 	stw	r3,0(sp)
 200500c:	dcc00315 	stw	r19,12(sp)
 2005010:	da000215 	stw	r8,8(sp)
 2005014:	d9c00115 	stw	r7,4(sp)
 2005018:	d8800415 	stw	r2,16(sp)
 200501c:	20092440 	call	2009244 <__sfvwrite_r>
 2005020:	00ffffc4 	movi	r3,-1
 2005024:	10000626 	beq	r2,zero,2005040 <_puts_r+0x84>
 2005028:	1805883a 	mov	r2,r3
 200502c:	dfc00917 	ldw	ra,36(sp)
 2005030:	dcc00817 	ldw	r19,32(sp)
 2005034:	dc400717 	ldw	r17,28(sp)
 2005038:	dec00a04 	addi	sp,sp,40
 200503c:	f800283a 	ret
 2005040:	00c00284 	movi	r3,10
 2005044:	1805883a 	mov	r2,r3
 2005048:	dfc00917 	ldw	ra,36(sp)
 200504c:	dcc00817 	ldw	r19,32(sp)
 2005050:	dc400717 	ldw	r17,28(sp)
 2005054:	dec00a04 	addi	sp,sp,40
 2005058:	f800283a 	ret

0200505c <puts>:
 200505c:	00808074 	movhi	r2,513
 2005060:	10964904 	addi	r2,r2,22820
 2005064:	200b883a 	mov	r5,r4
 2005068:	11000017 	ldw	r4,0(r2)
 200506c:	2004fbc1 	jmpi	2004fbc <_puts_r>

02005070 <strlen>:
 2005070:	208000cc 	andi	r2,r4,3
 2005074:	2011883a 	mov	r8,r4
 2005078:	1000161e 	bne	r2,zero,20050d4 <strlen+0x64>
 200507c:	20c00017 	ldw	r3,0(r4)
 2005080:	017fbff4 	movhi	r5,65279
 2005084:	297fbfc4 	addi	r5,r5,-257
 2005088:	01e02074 	movhi	r7,32897
 200508c:	39e02004 	addi	r7,r7,-32640
 2005090:	1945883a 	add	r2,r3,r5
 2005094:	11c4703a 	and	r2,r2,r7
 2005098:	00c6303a 	nor	r3,zero,r3
 200509c:	1886703a 	and	r3,r3,r2
 20050a0:	18000c1e 	bne	r3,zero,20050d4 <strlen+0x64>
 20050a4:	280d883a 	mov	r6,r5
 20050a8:	380b883a 	mov	r5,r7
 20050ac:	21000104 	addi	r4,r4,4
 20050b0:	20800017 	ldw	r2,0(r4)
 20050b4:	1187883a 	add	r3,r2,r6
 20050b8:	1946703a 	and	r3,r3,r5
 20050bc:	0084303a 	nor	r2,zero,r2
 20050c0:	10c4703a 	and	r2,r2,r3
 20050c4:	103ff926 	beq	r2,zero,20050ac <strlen+0x3c>
 20050c8:	20800007 	ldb	r2,0(r4)
 20050cc:	10000326 	beq	r2,zero,20050dc <strlen+0x6c>
 20050d0:	21000044 	addi	r4,r4,1
 20050d4:	20800007 	ldb	r2,0(r4)
 20050d8:	103ffd1e 	bne	r2,zero,20050d0 <strlen+0x60>
 20050dc:	2205c83a 	sub	r2,r4,r8
 20050e0:	f800283a 	ret

020050e4 <__sprint_r>:
 20050e4:	30800217 	ldw	r2,8(r6)
 20050e8:	defffe04 	addi	sp,sp,-8
 20050ec:	dc000015 	stw	r16,0(sp)
 20050f0:	dfc00115 	stw	ra,4(sp)
 20050f4:	3021883a 	mov	r16,r6
 20050f8:	0007883a 	mov	r3,zero
 20050fc:	1000061e 	bne	r2,zero,2005118 <__sprint_r+0x34>
 2005100:	1805883a 	mov	r2,r3
 2005104:	30000115 	stw	zero,4(r6)
 2005108:	dfc00117 	ldw	ra,4(sp)
 200510c:	dc000017 	ldw	r16,0(sp)
 2005110:	dec00204 	addi	sp,sp,8
 2005114:	f800283a 	ret
 2005118:	20092440 	call	2009244 <__sfvwrite_r>
 200511c:	1007883a 	mov	r3,r2
 2005120:	1805883a 	mov	r2,r3
 2005124:	80000115 	stw	zero,4(r16)
 2005128:	80000215 	stw	zero,8(r16)
 200512c:	dfc00117 	ldw	ra,4(sp)
 2005130:	dc000017 	ldw	r16,0(sp)
 2005134:	dec00204 	addi	sp,sp,8
 2005138:	f800283a 	ret

0200513c <___vfprintf_internal_r>:
 200513c:	defea404 	addi	sp,sp,-1392
 2005140:	dd815815 	stw	r22,1376(sp)
 2005144:	dc015215 	stw	r16,1352(sp)
 2005148:	d9c15115 	stw	r7,1348(sp)
 200514c:	dfc15b15 	stw	ra,1388(sp)
 2005150:	df015a15 	stw	fp,1384(sp)
 2005154:	ddc15915 	stw	r23,1380(sp)
 2005158:	dd415715 	stw	r21,1372(sp)
 200515c:	dd015615 	stw	r20,1368(sp)
 2005160:	dcc15515 	stw	r19,1364(sp)
 2005164:	dc815415 	stw	r18,1360(sp)
 2005168:	dc415315 	stw	r17,1356(sp)
 200516c:	282d883a 	mov	r22,r5
 2005170:	3021883a 	mov	r16,r6
 2005174:	d9014f15 	stw	r4,1340(sp)
 2005178:	20098680 	call	2009868 <_localeconv_r>
 200517c:	10800017 	ldw	r2,0(r2)
 2005180:	d9c15117 	ldw	r7,1348(sp)
 2005184:	d8814915 	stw	r2,1316(sp)
 2005188:	d8814f17 	ldw	r2,1340(sp)
 200518c:	10000226 	beq	r2,zero,2005198 <___vfprintf_internal_r+0x5c>
 2005190:	10800e17 	ldw	r2,56(r2)
 2005194:	10020d26 	beq	r2,zero,20059cc <___vfprintf_internal_r+0x890>
 2005198:	b080030b 	ldhu	r2,12(r22)
 200519c:	1080020c 	andi	r2,r2,8
 20051a0:	10020e26 	beq	r2,zero,20059dc <___vfprintf_internal_r+0x8a0>
 20051a4:	b0800417 	ldw	r2,16(r22)
 20051a8:	10020c26 	beq	r2,zero,20059dc <___vfprintf_internal_r+0x8a0>
 20051ac:	b200030b 	ldhu	r8,12(r22)
 20051b0:	00800284 	movi	r2,10
 20051b4:	40c0068c 	andi	r3,r8,26
 20051b8:	18802f1e 	bne	r3,r2,2005278 <___vfprintf_internal_r+0x13c>
 20051bc:	b080038f 	ldh	r2,14(r22)
 20051c0:	10002d16 	blt	r2,zero,2005278 <___vfprintf_internal_r+0x13c>
 20051c4:	b240038b 	ldhu	r9,14(r22)
 20051c8:	b2800717 	ldw	r10,28(r22)
 20051cc:	b2c00917 	ldw	r11,36(r22)
 20051d0:	d9014f17 	ldw	r4,1340(sp)
 20051d4:	dc402904 	addi	r17,sp,164
 20051d8:	d8804004 	addi	r2,sp,256
 20051dc:	00c10004 	movi	r3,1024
 20051e0:	423fff4c 	andi	r8,r8,65533
 20051e4:	800d883a 	mov	r6,r16
 20051e8:	880b883a 	mov	r5,r17
 20051ec:	da002c0d 	sth	r8,176(sp)
 20051f0:	da402c8d 	sth	r9,178(sp)
 20051f4:	da803015 	stw	r10,192(sp)
 20051f8:	dac03215 	stw	r11,200(sp)
 20051fc:	d8802d15 	stw	r2,180(sp)
 2005200:	d8c02e15 	stw	r3,184(sp)
 2005204:	d8802915 	stw	r2,164(sp)
 2005208:	d8c02b15 	stw	r3,172(sp)
 200520c:	d8002f15 	stw	zero,188(sp)
 2005210:	200513c0 	call	200513c <___vfprintf_internal_r>
 2005214:	d8814b15 	stw	r2,1324(sp)
 2005218:	10000416 	blt	r2,zero,200522c <___vfprintf_internal_r+0xf0>
 200521c:	d9014f17 	ldw	r4,1340(sp)
 2005220:	880b883a 	mov	r5,r17
 2005224:	20089140 	call	2008914 <_fflush_r>
 2005228:	1002321e 	bne	r2,zero,2005af4 <___vfprintf_internal_r+0x9b8>
 200522c:	d8802c0b 	ldhu	r2,176(sp)
 2005230:	1080100c 	andi	r2,r2,64
 2005234:	10000326 	beq	r2,zero,2005244 <___vfprintf_internal_r+0x108>
 2005238:	b080030b 	ldhu	r2,12(r22)
 200523c:	10801014 	ori	r2,r2,64
 2005240:	b080030d 	sth	r2,12(r22)
 2005244:	d8814b17 	ldw	r2,1324(sp)
 2005248:	dfc15b17 	ldw	ra,1388(sp)
 200524c:	df015a17 	ldw	fp,1384(sp)
 2005250:	ddc15917 	ldw	r23,1380(sp)
 2005254:	dd815817 	ldw	r22,1376(sp)
 2005258:	dd415717 	ldw	r21,1372(sp)
 200525c:	dd015617 	ldw	r20,1368(sp)
 2005260:	dcc15517 	ldw	r19,1364(sp)
 2005264:	dc815417 	ldw	r18,1360(sp)
 2005268:	dc415317 	ldw	r17,1356(sp)
 200526c:	dc015217 	ldw	r16,1352(sp)
 2005270:	dec15c04 	addi	sp,sp,1392
 2005274:	f800283a 	ret
 2005278:	0005883a 	mov	r2,zero
 200527c:	0007883a 	mov	r3,zero
 2005280:	dd401904 	addi	r21,sp,100
 2005284:	d8814215 	stw	r2,1288(sp)
 2005288:	802f883a 	mov	r23,r16
 200528c:	d8c14315 	stw	r3,1292(sp)
 2005290:	d8014b15 	stw	zero,1324(sp)
 2005294:	d8014815 	stw	zero,1312(sp)
 2005298:	d8014415 	stw	zero,1296(sp)
 200529c:	d8014715 	stw	zero,1308(sp)
 20052a0:	dd400c15 	stw	r21,48(sp)
 20052a4:	d8000e15 	stw	zero,56(sp)
 20052a8:	d8000d15 	stw	zero,52(sp)
 20052ac:	b8800007 	ldb	r2,0(r23)
 20052b0:	10001926 	beq	r2,zero,2005318 <___vfprintf_internal_r+0x1dc>
 20052b4:	00c00944 	movi	r3,37
 20052b8:	10c01726 	beq	r2,r3,2005318 <___vfprintf_internal_r+0x1dc>
 20052bc:	b821883a 	mov	r16,r23
 20052c0:	00000106 	br	20052c8 <___vfprintf_internal_r+0x18c>
 20052c4:	10c00326 	beq	r2,r3,20052d4 <___vfprintf_internal_r+0x198>
 20052c8:	84000044 	addi	r16,r16,1
 20052cc:	80800007 	ldb	r2,0(r16)
 20052d0:	103ffc1e 	bne	r2,zero,20052c4 <___vfprintf_internal_r+0x188>
 20052d4:	85e7c83a 	sub	r19,r16,r23
 20052d8:	98000e26 	beq	r19,zero,2005314 <___vfprintf_internal_r+0x1d8>
 20052dc:	dc800e17 	ldw	r18,56(sp)
 20052e0:	dc400d17 	ldw	r17,52(sp)
 20052e4:	008001c4 	movi	r2,7
 20052e8:	94e5883a 	add	r18,r18,r19
 20052ec:	8c400044 	addi	r17,r17,1
 20052f0:	adc00015 	stw	r23,0(r21)
 20052f4:	dc800e15 	stw	r18,56(sp)
 20052f8:	acc00115 	stw	r19,4(r21)
 20052fc:	dc400d15 	stw	r17,52(sp)
 2005300:	14428b16 	blt	r2,r17,2005d30 <___vfprintf_internal_r+0xbf4>
 2005304:	ad400204 	addi	r21,r21,8
 2005308:	d9014b17 	ldw	r4,1324(sp)
 200530c:	24c9883a 	add	r4,r4,r19
 2005310:	d9014b15 	stw	r4,1324(sp)
 2005314:	802f883a 	mov	r23,r16
 2005318:	b8800007 	ldb	r2,0(r23)
 200531c:	10013c26 	beq	r2,zero,2005810 <___vfprintf_internal_r+0x6d4>
 2005320:	bdc00044 	addi	r23,r23,1
 2005324:	d8000405 	stb	zero,16(sp)
 2005328:	b8c00007 	ldb	r3,0(r23)
 200532c:	04ffffc4 	movi	r19,-1
 2005330:	d8014c15 	stw	zero,1328(sp)
 2005334:	d8014a15 	stw	zero,1320(sp)
 2005338:	d8c14d15 	stw	r3,1332(sp)
 200533c:	bdc00044 	addi	r23,r23,1
 2005340:	d9414d17 	ldw	r5,1332(sp)
 2005344:	00801604 	movi	r2,88
 2005348:	28fff804 	addi	r3,r5,-32
 200534c:	10c06036 	bltu	r2,r3,20054d0 <___vfprintf_internal_r+0x394>
 2005350:	18c5883a 	add	r2,r3,r3
 2005354:	1085883a 	add	r2,r2,r2
 2005358:	00c08034 	movhi	r3,512
 200535c:	18d4db04 	addi	r3,r3,21356
 2005360:	10c5883a 	add	r2,r2,r3
 2005364:	11000017 	ldw	r4,0(r2)
 2005368:	2000683a 	jmp	r4
 200536c:	020062e0 	cmpeqi	r8,zero,395
 2005370:	020054d0 	cmplti	r8,zero,339
 2005374:	020054d0 	cmplti	r8,zero,339
 2005378:	020062cc 	andi	r8,zero,395
 200537c:	020054d0 	cmplti	r8,zero,339
 2005380:	020054d0 	cmplti	r8,zero,339
 2005384:	020054d0 	cmplti	r8,zero,339
 2005388:	020054d0 	cmplti	r8,zero,339
 200538c:	020054d0 	cmplti	r8,zero,339
 2005390:	020054d0 	cmplti	r8,zero,339
 2005394:	020060ac 	andhi	r8,zero,386
 2005398:	020062bc 	xorhi	r8,zero,394
 200539c:	020054d0 	cmplti	r8,zero,339
 20053a0:	020060c4 	movi	r8,387
 20053a4:	02006358 	cmpnei	r8,zero,397
 20053a8:	020054d0 	cmplti	r8,zero,339
 20053ac:	02006344 	movi	r8,397
 20053b0:	0200630c 	andi	r8,zero,396
 20053b4:	0200630c 	andi	r8,zero,396
 20053b8:	0200630c 	andi	r8,zero,396
 20053bc:	0200630c 	andi	r8,zero,396
 20053c0:	0200630c 	andi	r8,zero,396
 20053c4:	0200630c 	andi	r8,zero,396
 20053c8:	0200630c 	andi	r8,zero,396
 20053cc:	0200630c 	andi	r8,zero,396
 20053d0:	0200630c 	andi	r8,zero,396
 20053d4:	020054d0 	cmplti	r8,zero,339
 20053d8:	020054d0 	cmplti	r8,zero,339
 20053dc:	020054d0 	cmplti	r8,zero,339
 20053e0:	020054d0 	cmplti	r8,zero,339
 20053e4:	020054d0 	cmplti	r8,zero,339
 20053e8:	020054d0 	cmplti	r8,zero,339
 20053ec:	020054d0 	cmplti	r8,zero,339
 20053f0:	020054d0 	cmplti	r8,zero,339
 20053f4:	020054d0 	cmplti	r8,zero,339
 20053f8:	020054d0 	cmplti	r8,zero,339
 20053fc:	02005b28 	cmpgeui	r8,zero,364
 2005400:	02006194 	movui	r8,390
 2005404:	020054d0 	cmplti	r8,zero,339
 2005408:	02006194 	movui	r8,390
 200540c:	020054d0 	cmplti	r8,zero,339
 2005410:	020054d0 	cmplti	r8,zero,339
 2005414:	020054d0 	cmplti	r8,zero,339
 2005418:	020054d0 	cmplti	r8,zero,339
 200541c:	020062f8 	rdprs	r8,zero,395
 2005420:	020054d0 	cmplti	r8,zero,339
 2005424:	020054d0 	cmplti	r8,zero,339
 2005428:	02005bdc 	xori	r8,zero,367
 200542c:	020054d0 	cmplti	r8,zero,339
 2005430:	020054d0 	cmplti	r8,zero,339
 2005434:	020054d0 	cmplti	r8,zero,339
 2005438:	020054d0 	cmplti	r8,zero,339
 200543c:	020054d0 	cmplti	r8,zero,339
 2005440:	02005c28 	cmpgeui	r8,zero,368
 2005444:	020054d0 	cmplti	r8,zero,339
 2005448:	020054d0 	cmplti	r8,zero,339
 200544c:	02006248 	cmpgei	r8,zero,393
 2005450:	020054d0 	cmplti	r8,zero,339
 2005454:	020054d0 	cmplti	r8,zero,339
 2005458:	020054d0 	cmplti	r8,zero,339
 200545c:	020054d0 	cmplti	r8,zero,339
 2005460:	020054d0 	cmplti	r8,zero,339
 2005464:	020054d0 	cmplti	r8,zero,339
 2005468:	020054d0 	cmplti	r8,zero,339
 200546c:	020054d0 	cmplti	r8,zero,339
 2005470:	020054d0 	cmplti	r8,zero,339
 2005474:	020054d0 	cmplti	r8,zero,339
 2005478:	0200621c 	xori	r8,zero,392
 200547c:	02005b34 	movhi	r8,364
 2005480:	02006194 	movui	r8,390
 2005484:	02006194 	movui	r8,390
 2005488:	02006194 	movui	r8,390
 200548c:	02006180 	call	200618 <__alt_mem_sdram_0-0x1dff9e8>
 2005490:	02005b34 	movhi	r8,364
